              	; --------------------------------------
              	; zasm: assemble "KSG1000.asm"
              	; date: 2024-09-06 21:44:24
              	; --------------------------------------


              	;
              	;********************************************************************
              	;*
              	;*        K R I S Y S   S G 1 0 0 0   C O R E
              	;*
              	;********************************************************************
              	
              	#include "KRISYS.asm"
              	;
              	;********************************************************************
              	;*
              	;*              I D E N T I T Y   K R I S Y S
              	;*
              	;*      The [K]lunkly [R]emapper / [I]nterpreter [SYS]tem
              	;*
              	;*             Written by Gavin Tersteeg, 2024
              	;*              Copyleft, All Wrongs Reserved
              	;*
              	;*
              	;*   This piece of software allows different classic Z80 systems
              	;*   to run as "virtual machines" on top of existing hardware by
              	;*   use of a ZMM (Z80 MEGAMAPPER). It does this by remapping RAM
              	;*   and I/O address space ot match that of it's target system.
              	;*   Anything that can't be emulated by simple remapping is instead
              	;*   interpreted using I/O traps. 
              	;*
              	;*   This allows virtualized machines to run with an acceptable
              	;*   degree of speed and accuracy. While the ZMM is still quite
              	;*   limited in what sort of hardware can be efficiently virtualized,
              	;*   anything that avoids MMIO or graphics hardware that isn't a VDP
              	;*   generally can be made to work.
              	;* 
              	;********************************************************************
              		
              	; ----------------------------
              	; ******** ZASM Setup ********
              	; ----------------------------
              	
0020:         	stack_size = 0x20
              	
              	#target BIN
0100:         	#code	_TEXT,0x0100	; Setup to run as a CP/M executable
0C52:         	#code	_DATA,_TEXT_end
107A:         	#data	_BSS,_DATA_end
              	
              	; Make sure we don't overrun available memory
              	#assert	_BSS_end < (zmm_capture-stack_size)
              	
              	.area	_TEXT
0100: C39409  		jp	kri_start
              	
              	; -------------------------
              	; ******** Equates ********
              	; -------------------------
              	
              	; CP/M Stuff
0005:         	bdos		equ	0x0005
0000:         	bdos_exit	equ	0x00
0001:         	bdos_con_in	equ	0x01
0002:         	bdos_con_out	equ	0x02
0009:         	bdos_print	equ	0x09
000A:         	bdos_input	equ	0x0A
000F:         	bdos_open	equ	0x0F
0014:         	bdos_read	equ	0x14
001A:         	bios_set_dma	equ	0x1A
              	
0080:         	cpm_command	equ	0x0080
              	
              	; Z80 MEGAMAPPER Stuff
0030:         	zmm_bnk0	equ	0x30	; 16K Bank 0 (0x0000 - 0x3FFF)
0031:         	zmm_bnk1	equ	0x31	; 16K Bank 1 (0x4000 - 0x7FFF)
0032:         	zmm_bnk2	equ	0x32	; 16K Bank 2 (0x8000 - 0xBFFF)
0033:         	zmm_bnk3	equ	0x33	; 16K Bank 3 (0xC000 - 0xFFFF)
0034:         	zmm_ctrl	equ	0x34	; ZMM Control Register
0030:         	zmm_isr		equ	0x30	; ZMM Trapped Instruction Register
0032:         	zmm_addr_hi	equ	0x32	; ZMM Trap Address High
0033:         	zmm_addr_lo	equ	0x33	; ZMM Trap Address Low
0037:         	zmm_trap	equ	0x37 	; ZMM Trap Vector
              	
7000:         	zmm_capture	equ	0x7000
8000:         	zmm_map		equ	0x8000
C000:         	zmm_top		equ	0xC000
              	
0070:         	zmm_capt_set	equ	0b01110000
007F:         	zmm_capt_res	equ	0b01111111
              	
              	; General Z80 Stuff
0066:         	nmi_address	equ	0x0066
0067:         	nmi_vector	equ	nmi_address+1
              	
              	; NABU Specific Stuff
0000:         	nabu_nctl	equ	0x00	; NABU Control Register
0040:         	nabu_ay_data	equ	0x40	; AY-3-8910 Data Port
0041:         	nabu_ay_latch	equ	0x41	; AY-3-8910 Latch Port
0090:         	nabu_key_data	equ	0x90	; NABU Keyboard Data
0091:         	nabu_key_stat	equ	0x91	; NABU Keyboard Status
00A0:         	nabu_vdp_data	equ	0xA0	; VDP Data Port
00A1:         	nabu_vdp_addr	equ	0xA1	; VDP Address Port
              	
              	; Stack / Trap Management
7000:         	kri_stack	equ	zmm_capture
6FFF:         	trap_a_value	equ	kri_stack-1
6FFE:         	trap_f_value	equ	kri_stack-2
              	
              	; -------------------------------------
              	; ******** Additional Includes ********
              	; -------------------------------------
              	
              	#include "MEMORY.asm"
              	;
              	;********************************************************************
              	;*
              	;*                    Z M M   M E M O R Y
              	;* 
              	;*    The ZMM can be configured to have different amounts
              	;*    of memory installed. Instead of dicking around with 
              	;*    on-board jumpers, KRISYS will simply check what banks
              	;*    are available on startup. Memory will be dynamically
              	;*    allocated as needed by the client process.
              	;*
              	;*    Memory can be assigned to specific owners in the code.
              	;*    Valid owner IDs range from 1 to 254. Owner 0 is reserved
              	;*    for unallocatable banks.
              	;*
              	;********************************************************************
              	
              	; ----------------------------
              	; ********  Functions ********
              	; ----------------------------
              	
              	.area	_TEXT
              		
              	; Initalize the memory map
              	; Each bank of the ZMM will be probed, and writable
              	; banks will be recorded on the allocated bank map
              	;
              	; Returns nothing
              	; Uses: AF, BC, DE, HL
0103:         	mem_map_init:
              		; Go to virtual mode
0103: CD9102  		call	zmm_set_virt
              		
              		; Reset free bank counter
0106: 3E00    		ld	a,0
0108: 327B10  		ld	(banks_free),a
              		
              		; Write tags to all banks
010B: 0600    		ld	b,0
010D: 78      	0$:	ld	a,b
010E: CDFB02  		call	zmm_bnk3_set
0111: 3200C0  		ld	(zmm_top),a
0114: ED44    		neg
0116: 3201C0  		ld	(zmm_top+1),a
0119: 04      		inc	b
011A: F20D01  		jp	p,0$
              		
              		; Mark any banks that record correctly
011D: 0600    		ld	b,0
011F: 217C10  		ld	hl,alloc_bank_map
0122: AF      	1$:	xor	a
0123: 77      		ld	(hl),a
0124: 78      		ld	a,b
0125: CDFB02  		call	zmm_bnk3_set
0128: 3A00C0  		ld	a,(zmm_top)
012B: B8      		cp	b
012C: C24401  		jp	nz,2$
012F: 3A01C0  		ld	a,(zmm_top+1)
0132: 4F      		ld	c,a
0133: 78      		ld	a,b
0134: ED44    		neg
0136: B9      		cp	c
0137: C24401  		jp	nz,2$
              	
              		; Mark it
013A: 3EFF    		ld	a,0xFF
013C: 77      		ld	(hl),a
013D: 3A7B10  		ld	a,(banks_free)
0140: 3C      		inc	a
0141: 327B10  		ld	(banks_free),a
              		
              		; Next
0144: 23      	2$:	inc	hl
0145: 04      		inc	b
0146: F22201  		jp	p,1$
              		
              		; Disable virtual mode
0149: CD9C02  		call	zmm_set_real
              		
              		; Print out result
014C: 3A7B10  		ld	a,(banks_free)
014F: CDFB09  		call	tohex
0152: ED53770C		ld	(str_mem_init_cnt),de
0156: 11520C  		ld	de,str_mem_init
0159: CDB909  		call	cpm_print
              		
              		; Do we actually have an acceptable amount of memory?
015C: 3A7B10  		ld	a,(banks_free)
015F: 3D      		dec	a
0160: 3D      		dec	a
0161: FAF301  		jp	m,mem_empty
              		
              		; We do, return
0164: C9      		ret
              		
              	; Fetch byte from virtual memory
              	; HL = Address to fetch
              	;
              	; Returns A = Fetched byte
              	; Uses: AF
0165:         	mem_fvbyte:
              		; Calculate target bank
0165: CD9001  		call	mem_getbank
0168: D333    		out	(zmm_bnk3),a
              		
              		; Grab byte
016A: E5      		push	hl
016B: 7C      		ld	a,h
016C: F6C0    		or	0b11000000
016E: 67      		ld	h,a
016F: 66      		ld	h,(hl)
              		
              		; Restore original bank
0170: 3A0211  		ld	a,(zmm_bnk3_state)
0173: D333    		out	(zmm_bnk3),a
0175: 7C      		ld	a,h
              		
              		; Return
0176: E1      		pop	hl
0177: C9      		ret
              		
              	; Set a byte in virtual memory
              	; A = Value to set
              	; HL = Address of byte
              	;
              	; Returns nothing
              	; Uses: AF
0178:         	mem_svbyte:
              		; Calculate target bank
0178: 327A10  		ld	(mem_work),a
017B: CD9001  		call	mem_getbank
017E: D333    		out	(zmm_bnk3),a
              		
              		; Set the byte
0180: E5      		push	hl
0181: 7C      		ld	a,h
0182: F6C0    		or	0b11000000
0184: 67      		ld	h,a
0185: 3A7A10  		ld	a,(mem_work)
0188: 77      		ld	(hl),a
              		
              		; Restore original bank
0189: 3A0211  		ld	a,(zmm_bnk3_state)
018C: D333    		out	(zmm_bnk3),a
              	
              		; Return
018E: E1      		pop	hl
018F: C9      		ret
              	
              	; Gets the bank that an address points to
              	; HL = Address to analyse
              	;
              	; Returns A = Value of write-enabled bank
              	; Uses: AF
0190:         	mem_getbank:
0190: 7C      		ld	a,h
0191: 07      		rlca
0192: DAA501  		jp	c,0$
              		
              		; Lower 32K
0195: 07      		rlca
0196: DA9F01  		jp	c,1$
              		
              		; 0-15K
0199: 3AFF10  		ld	a,(zmm_bnk0_state)
019C: E67F    		and	0b01111111
019E: C9      		ret
              		
              		; 16K-31K
019F: 3A0011  	1$:	ld	a,(zmm_bnk1_state)
01A2: E67F    		and	0b01111111
01A4: C9      		ret
              	
              		; Upper 32K
01A5: 07      	0$:	rlca
01A6: DAAF01  		jp	c,2$
              		
              		; 32K-47K
01A9: 3A0111  		ld	a,(zmm_bnk2_state)
01AC: E67F    		and	0b01111111
01AE: C9      		ret
              	
              		; 48K-63K
01AF: 3A0211  	2$:	ld	a,(zmm_bnk3_state)
01B2: E67F    		and	0b01111111
01B4: C9      		ret
              		
              	; Allocates a bank of memory
              	; Will produce an error if no banks are available,
              	; check (banks_free) to avoid
              	; D = Owner ID (1-254)
              	;
              	; Returns A = Bank #
              	; Uses: AF, BC, HL
01B5:         	mem_alloc:
              		; Check and decrement free memory
01B5: 3A7B10  		ld	a,(banks_free)
01B8: 3D      		dec	a
01B9: 327B10  		ld	(banks_free),a
01BC: FAF301  		jp	m,mem_empty
              		
              		; Look for the first free bank
01BF: 217C10  		ld	hl,alloc_bank_map
01C2: 018000  		ld	bc,0x0080
01C5: 3EFF    		ld	a,0xFF
01C7: EDB1    		cpir
              		
              		; Make sure we found something
01C9: C2F301  		jp	nz,mem_empty
              		
              		; Save and exit
01CC: 2B      		dec	hl
01CD: 72      		ld	(hl),d
01CE: 017C10  		ld	bc,alloc_bank_map
01D1: B7      		or	a
01D2: ED42    		sbc	hl,bc
01D4: 7D      		ld	a,l
01D5: C9      		ret
              		
              	; Frees a bank of memory
              	; Safe to use on banks that are not free / not owned
              	; A = Bank #
              	; D = Owner ID (1-254)
              	;
              	; Returns nothing
              	; Uses: AF, BC, HL
01D6:         	mem_free:
              		; Find location in memory
01D6: 0600    		ld	b,0
01D8: 4F      		ld	c,a
01D9: 217C10  		ld	hl,alloc_bank_map
01DC: 09      		add	hl,bc
              		
              		; Check owner
01DD: 7E      		ld	a,(hl)
01DE: BA      		cp	d
01DF: C0      		ret	nz
              		
              		; Free bank
01E0: 3EFF    		ld	a,0xFF
01E2: 77      		ld	(hl),a
              		
              		; Increment banks free
01E3: 217B10  		ld	hl,banks_free
01E6: 34      		inc	(hl)
01E7: C9      		ret
              		
              	; Free all banks by owner
              	; D = Owner ID (1-254)
              	;
              	; Returns nothing
              	; Uses: AF, BC, HL
01E8:         	mem_free_all:
              		; Free a bank
01E8: AF      		xor	a
01E9: F5      	0$:	push	af
01EA: CDD601  		call	mem_free
01ED: F1      		pop	af
              		
              		; Next bank
01EE: 3C      		inc	a
01EF: F2E901  		jp	p,0$
01F2: C9      		ret
              		
              	; Error out if empty
              	;
              	; Does not return
              	; Uses: N/A
01F3:         	mem_empty:
01F3: 117D0C  		ld	de,str_mem_empty
01F6: CDB909  		call	cpm_print
01F9: C3F309  		jp	cpm_exit
              	
              	; -------------------------
              	; ******** Strings ********
              	; -------------------------
              	
              	.area	_DATA
              	
              	; Inital string that prints when the program is started
0C52:         	str_mem_init:
0C52: 494E4954		defb	'INITIALIZED MEMORY MAP',0x0A,0x0D
0C56: 49414C49	
0C5A: 5A454420	
0C5E: 4D454D4F	
0C62: 5259204D	
0C66: 41500A0D	
0C6A: 42414E4B		defb	'BANK COUNT = '
0C6E: 20434F55	
0C72: 4E54203D	
0C76: 20      	
0C77:         	str_mem_init_cnt:
0C77: 5858480A		defb	'XXH',0x0A,0x0D,'$'
0C7B: 0D24    	
              		
0C7D:         	str_mem_empty:
0C7D: 494E5355		defb	'INSUFFICIENT MEMORY',0x0A,0x0D,'$'
0C81: 46464943	
0C85: 49454E54	
0C89: 204D454D	
0C8D: 4F52590A	
0C91: 0D24    	
              	
              	; ---------------------------
              	; ******** Variables ********
              	; ---------------------------
              	
              	.area	_BSS
              	
              	; Memory work byte
107A:         	mem_work:
107A: 00      		defs	1
              	
              	; Free bank count
107B:         	banks_free:
107B: 00      		defs	1
              	
              	; Allocated bank map
              	; This 128 byte table keeps track of every single 16K bank
              	; that exists on the ZMM. Populated on startup
107C:         	alloc_bank_map:
107C: 00000000		defs	128
1080: 00...   	
              	#include "ZMM.asm"
              	;
              	;********************************************************************
              	;*
              	;*                  Z M M   M A N A G E M E N T
              	;* 
              	;*    These routines are used to manage the state of the ZMM.
              	;*    This includes the setting of the registers as well as setting
              	;*    up trap and interrupt stuff.
              	;*
              	;********************************************************************
              	
              	; ----------------------------
              	; ********  Functions ********
              	; ----------------------------
              	
              	.area	_TEXT
              	
              	; Initalize ZMM and reset registers
              	;
              	; Returns nothing
              	; Uses: AF
01FC:         	zmm_init:
              		; Zero out control register
01FC: 3E00    		ld	a,0
01FE: 32FE10  		ld	(zmm_ctrl_state),a
0201: 32FF10  		ld	(zmm_bnk0_state),a
0204: 320011  		ld	(zmm_bnk1_state),a
0207: 320111  		ld	(zmm_bnk2_state),a
020A: 320211  		ld	(zmm_bnk3_state),a
              		
              		; See if we can swing in and out of virtual mode
020D: CD9102  		call	zmm_set_virt
0210: CD9C02  		call	zmm_set_real
              		
              		; Tell the user that the ZMM is ready
0213: 11930C  		ld	de,str_zmm_init
0216: C3B909  		jp	cpm_print
              		
              	; Performs a virtual NMI
              	;
              	; Returns nothing
              	; Uses: AF
0219:         	zmm_nmi:
0219: E5      		push	hl
              		
              		; Get the value of the program counter
021A: 2AC111  		ld	hl,(trap_sp_value)
021D: 7C      		ld	a,h
021E: E67F    		and	zmm_capt_res
0220: F670    		or	zmm_capt_set
0222: 67      		ld	h,a
0223: 7E      		ld	a,(hl)
0224: 32FC10  		ld	(zmm_work),a
0227: 23      		inc	hl
0228: 7C      		ld	a,h
0229: E67F    		and	zmm_capt_res
022B: F670    		or	zmm_capt_set
022D: 67      		ld	h,a
022E: 7E      		ld	a,(hl)
              		
              		; Push it onto the virtual stack
022F: 2AC111  		ld	hl,(trap_sp_value)
0232: 2B      		dec	hl
0233: CD7801  		call	mem_svbyte
0236: 2B      		dec	hl
0237: 3AFC10  		ld	a,(zmm_work)
023A: CD7801  		call	mem_svbyte
023D: 22C111  		ld	(trap_sp_value),hl
              	
              		; Push 0x66 as a return address
0240: 7C      		ld	a,h
0241: E67F    		and	zmm_capt_res
0243: F670    		or	zmm_capt_set
0245: 67      		ld	h,a
0246: 3666    		ld	(hl),0x66
0248: 23      		inc	hl
0249: 7C      		ld	a,h
024A: E67F    		and	zmm_capt_res
024C: F670    		or	zmm_capt_set
024E: 67      		ld	h,a
024F: 3600    		ld	(hl),0
              		
              		; Disable interrupts
0251: F3      		di
              	
0252: E1      		pop	hl
0253: C9      		ret
              		
              	; Start execution of the virtual machine at a specific location
              	; HL = Address to start execution at
              	; 
              	; Does not return
              	; Uses: All registers zeroed
0254:         	zmm_vm_start:
0254: 310000  		ld	sp,0x0000
              		
              		; Completely empty out capture zone
0257: E5      		push	hl
0258: 210070  		ld	hl,zmm_capture
025B: 110170  		ld	de,zmm_capture+1
025E: 01FF0F  		ld	bc,0x1000-1
0261: AF      		xor	a
0262: 77      		ld	(hl),a
0263: EDB0    		ldir
0265: E1      		pop	hl
              		
0266: 7D      		ld	a,l
0267: 320070  		ld	(zmm_capture),a
026A: 7C      		ld	a,h
026B: 320170  		ld	(zmm_capture + 1),a
              		
              		; Reset I/O trap flag just in case
026E: D337    		out	(zmm_trap),a
              		
              		; Zero everything
0270: AF      		xor	a
0271: 47      		ld	b,a
0272: 4F      		ld	c,a
0273: 57      		ld 	d,a
0274: 5F      		ld	e,a
0275: 67      		ld	h,a
0276: 6F      		ld	l,a
0277: D9      		exx
0278: 08      		ex	af,af'
0279: AF      		xor	a
027A: 47      		ld	b,a
027B: 4F      		ld	c,a
027C: 57      		ld 	d,a
027D: 5F      		ld	e,a
027E: 67      		ld	h,a
027F: 6F      		ld	l,a
              		
0280: DD210000		ld	ix,0
0284: FD210000		ld	iy,0
              		
              		; Enter virtual machine
0288: 00      		nop
0289: ED45    		retn
              		
              	; Set the ZMM control register to the recorded state
              	; (zmm_ctrl_state) = New value of ZMM control register
              	;
              	; Returns nothing
              	; Uses: AF
028B:         	zmm_ctrl_set:
028B: 3AFE10  		ld	a,(zmm_ctrl_state)
028E: D334    		out	(zmm_ctrl),a
0290: C9      		ret
              		
              	; Go to virtual mode
              	;
              	; Returns nothing
              	; Uses: AF
0291:         	zmm_set_virt:
0291: 3AFE10  		ld	a,(zmm_ctrl_state)
0294: F601    		or	0b00000001
0296: 32FE10  		ld	(zmm_ctrl_state),a
0299: D334    		out	(zmm_ctrl),a
029B: C9      		ret
              		
              	; Go to real mode
              	;
              	; Returns nothing
              	; Uses: AF
029C:         	zmm_set_real:
029C: 3AFE10  		ld	a,(zmm_ctrl_state)
029F: E6FE    		and	0b11111110
02A1: 32FE10  		ld	(zmm_ctrl_state),a
02A4: D334    		out	(zmm_ctrl),a
02A6: C9      		ret
              		
              	; Set program direction to "IN"
              	;
              	; Returns nothing
              	; Uses: AF
02A7:         	zmm_prgm_in:
02A7: 3AFE10  		ld	a,(zmm_ctrl_state)
02AA: F602    		or	0b00000010
02AC: 32FE10  		ld	(zmm_ctrl_state),a
02AF: D334    		out	(zmm_ctrl),a
02B1: C9      		ret
              		
              	; Set program direction to "OUT"
              	;
              	; Returns nothing
              	; Uses: AF
02B2:         	zmm_prgm_out:
02B2: 3AFE10  		ld	a,(zmm_ctrl_state)
02B5: E6FD    		and	0b11111101
02B7: 32FE10  		ld	(zmm_ctrl_state),a
02BA: D334    		out	(zmm_ctrl),a
02BC: C9      		ret
              		
              	; Turn on irq intercept mode
              	;
              	; Returns nothing
              	; Uses: AF
02BD:         	zmm_irq_inter:
02BD: 3AFE10  		ld	a,(zmm_ctrl_state)
02C0: F604    		or	0b00000100
02C2: 32FE10  		ld	(zmm_ctrl_state),a
02C5: D334    		out	(zmm_ctrl),a
02C7: C9      		ret
              		
              	; Turn off irq intercept mode
              	;
              	; Returns nothing
              	; Uses: AF
02C8:         	zmm_irq_normal:
02C8: 3AFE10  		ld	a,(zmm_ctrl_state)
02CB: E6FB    		and	0b11111011
02CD: 32FE10  		ld	(zmm_ctrl_state),a
02D0: D334    		out	(zmm_ctrl),a
02D2: C9      		ret
              	
              	; Turn on force virtual irq
              	;
              	; Returns nothing
              	; Uses: AF
02D3:         	zmm_irq_on:
02D3: 3AFE10  		ld	a,(zmm_ctrl_state)
02D6: F608    		or	0b00001000
02D8: 32FE10  		ld	(zmm_ctrl_state),a
02DB: D334    		out	(zmm_ctrl),a
02DD: C9      		ret
              		
              	; Turn off force virtual irq
              	;
              	; Returns nothing
              	; Uses: AF
02DE:         	zmm_irq_off:
02DE: 3AFE10  		ld	a,(zmm_ctrl_state)
02E1: E6F7    		and	0b11110111
02E3: 32FE10  		ld	(zmm_ctrl_state),a
02E6: D334    		out	(zmm_ctrl),a
02E8: C9      		ret
              		
              	; Set bank 0
              	; A = Bank to set
              	;
              	; Returns nothing
              	; Uses: AF,
02E9:         	zmm_bnk0_set:
02E9: 32FF10  		ld	(zmm_bnk0_state),a
02EC: D330    		out	(zmm_bnk0),a
02EE: C9      		ret
              		
              	; Set bank 1
              	; A = Bank to set
              	;
              	; Returns nothing
              	; Uses:  AF
02EF:         	zmm_bnk1_set:
02EF: 320011  		ld	(zmm_bnk1_state),a
02F2: D331    		out	(zmm_bnk1),a
02F4: C9      		ret
              		
              	; Set bank 2
              	; A = Bank to set
              	;
              	; Returns nothing
              	; Uses:  AF
02F5:         	zmm_bnk2_set:
02F5: 320111  		ld	(zmm_bnk2_state),a
02F8: D332    		out	(zmm_bnk2),a
02FA: C9      		ret
              		
              	; Set bank 3
              	; A = Bank to set
              	;
              	; Returns nothing
              	; Uses:  AF
02FB:         	zmm_bnk3_set:
02FB: 320211  		ld	(zmm_bnk3_state),a
02FE: D333    		out	(zmm_bnk3),a
0300: C9      		ret
              		
              		
              	; Write protect bank 0
              	;
              	; Returns nothing
              	; Uses: AF
0301:         	zmm_bnk0_wp:
0301: 3AFF10  		ld	a,(zmm_bnk0_state)
0304: F680    		or	0b10000000
0306: C3E902  		jp 	zmm_bnk0_set
              		
              	; Write enable bank 0
              	;
              	; Returns nothing
              	; Uses: AF
0309:         	zmm_bnk0_we:
0309: 3AFF10  		ld	a,(zmm_bnk0_state)
030C: E67F    		and	~0b10000000
030E: C3E902  		jp 	zmm_bnk0_set
              		
              	; Write protect bank 1
              	;
              	; Returns nothing
              	; Uses: AF
0311:         	zmm_bnk1_wp:
0311: 3A0011  		ld	a,(zmm_bnk1_state)
0314: F680    		or	0b10000000
0316: C3EF02  		jp 	zmm_bnk1_set
              		
              	; Write enable bank 1
              	;
              	; Returns nothing
              	; Uses: AF
0319:         	zmm_bnk1_we:
0319: 3A0011  		ld	a,(zmm_bnk1_state)
031C: E67F    		and	~0b10000000
031E: C3EF02  		jp 	zmm_bnk1_set
              		
              	; Write protect bank 2
              	;
              	; Returns nothing
              	; Uses: AF
0321:         	zmm_bnk2_wp:
0321: 3A0111  		ld	a,(zmm_bnk2_state)
0324: F680    		or	0b10000000
0326: C3F502  		jp 	zmm_bnk2_set
              		
              	; Write enable bank 2
              	;
              	; Returns nothing
              	; Uses: AF
0329:         	zmm_bnk2_we:
0329: 3A0111  		ld	a,(zmm_bnk2_state)
032C: E67F    		and	~0b10000000
032E: C3F502  		jp 	zmm_bnk2_set
              		
              	; Write protect bank 3
              	;
              	; Returns nothing
              	; Uses: AF
0331:         	zmm_bnk3_wp:
0331: 3A0211  		ld	a,(zmm_bnk3_state)
0334: F680    		or	0b10000000
0336: C3FB02  		jp 	zmm_bnk3_set
              		
              	; Write enable bank 3
              	;
              	; Returns nothing
              	; Uses: AF
0339:         	zmm_bnk3_we:
0339: 3A0211  		ld	a,(zmm_bnk3_state)
033C: E67F    		and	~0b10000000
033E: C3FB02  		jp 	zmm_bnk3_set
              		
              	; -------------------------
              	; ******** Strings ********
              	; -------------------------
              	
              	.area	_DATA
              	
              	; Inital string that prints when the program is started
0C93:         	str_zmm_init:
0C93: 494E4954		defb	'INITIALIZED ZMM',0x0A,0x0D,'$'
0C97: 49414C49	
0C9B: 5A454420	
0C9F: 5A4D4D0A	
0CA3: 0D24    	
              		
              	; ---------------------------
              	; ******** Variables ********
              	; ---------------------------
              	
              	.area	_BSS
              	
              	; ZMM work memory
10FC:         	zmm_work:
10FC: 0000    		defs	2
              	
              	; Reflected state of control register
10FE:         	zmm_ctrl_state:
10FE: 00      		defs	1
              		
              	; Bank 0 state
10FF:         	zmm_bnk0_state:
10FF: 00      		defs	1
              		
              	; Bank 1 state
1100:         	zmm_bnk1_state:
1100: 00      		defs	1
              		
              	; Bank 2 state
1101:         	zmm_bnk2_state:
1101: 00      		defs	1
              		
              	; Bank 3 state
1102:         	zmm_bnk3_state:
1102: 00      		defs	1
              		
              	#include "RESOURCE.asm"
              	;
              	;********************************************************************
              	;*
              	;*               R E S O U R C E   M A N A G E M E N T
              	;* 
              	;*    These routines handle obtaining use-supplied resources
              	;*    such as configurations, ROM images, and storage bindings.
              	;*    During startup, these resources will be loaded to build
              	;*    the virtual machine.
              	;*
              	;********************************************************************
              	
              	; -------------------------
              	; ******** Equates ********
              	; -------------------------
              	
0010:         	arg_size	equ 16
              	
              	; ----------------------------
              	; ********  Functions ********
              	; ----------------------------
              	
              	.area	_TEXT
              	
              	; Initalize resources
              	;
              	; Returns nothing
              	; Uses: AF, BC, HL
0341:         	res_init:
              		; Start by zero-terminating string
0341: 218000  		ld	hl,cpm_command
0344: 4E      		ld	c,(hl)
0345: 0600    		ld	b,0
0347: 09      		add	hl,bc
0348: 23      		inc	hl
0349: 70      		ld	(hl),b
              		
034A: C9      		ret
              		
              	; Loads an open resource into a bankmap
              	; Bankmap will be zero-padded to fill requested number of records
              	; HL = Address of bankmap
              	; BC = Number of records (128 byte blocks) to load
              	;
              	; Returns nothing
              	; Uses: all
034B:         	res_load:
              		; Set read flag
034B: 3EFF    		ld	a,0xFF
034D: 329811  		ld	(res_do_read),a
              	
              		; Save args
0350: 229911  		ld	(res_bankmap),hl
0353: ED439611		ld	(res_sectors),bc
              	
              		; Virtual mode should be off while we do this
0357: 3AFE10  		ld	a,(zmm_ctrl_state)
035A: F5      		push	af
035B: CD9C02  		call	zmm_set_real
              		
              		; Do function call
035E: CD6D03  		call	0$
              		
              		; Reset bank 3
0361: 3A0211  		ld	a,(zmm_bnk3_state)
0364: D333    		out	(zmm_bnk3),a
              		
              		; Restore register
0366: F1      		pop	af
0367: 32FE10  		ld	(zmm_ctrl_state),a
036A: C38B02  		jp	zmm_ctrl_set
              		
              		; Allocate a new bank
036D: 1601    	0$:	ld	d,1
036F: CDB501  		call	mem_alloc
0372: 2A9911  		ld	hl,(res_bankmap)
0375: 77      		ld	(hl),a
0376: 23      		inc	hl
0377: 229911  		ld	(res_bankmap),hl
              		
              		; Set the bank in slot 3
037A: D333    		out	(zmm_bnk3),a
              		
              		; Set DMA address
037C: 111611  		ld	de,res_buffer
037F: 0E1A    		ld	c,bios_set_dma
0381: CD0500  		call	bdos
              		
              		; Set pointer	
0384: 2100C0  		ld	hl,zmm_top
0387: 229B11  		ld	(res_pointer),hl
              		
              		; We will be loading up to 128 records at a time here
038A: 0680    		ld	b,128
              		
              		; Do read operation
038C: C5      	1$:	push	bc
038D: 119D11  		ld	de,res_fcb
0390: 0E14    		ld	c,bdos_read
0392: 3A9811  		ld	a,(res_do_read)
0395: B7      		or	a
0396: C40500  		call	nz,bdos
              		
              		; Check file I/O result
0399: B7      		or	a
039A: C4C303  		call	nz,50$
              		
              		; Go to virtual mode
039D: CD9102  		call	zmm_set_virt
              		
              		; Copy record to bank
03A0: 211611  		ld	hl,res_buffer
03A3: ED5B9B11		ld	de,(res_pointer)
03A7: 018000  		ld	bc,128
03AA: EDB0    		ldir
03AC: ED539B11		ld	(res_pointer),de
              		
              		; Back to real mode
03B0: CD9C02  		call	zmm_set_real 
              		
              		; Get BC back to restore sector counter
03B3: C1      		pop	bc
              		
              		; Decrement record count
03B4: 2A9611  		ld	hl,(res_sectors)
03B7: 2B      		dec	hl
03B8: 229611  		ld	(res_sectors),hl
03BB: 7C      		ld	a,h
03BC: B5      		or	l
03BD: C8      		ret	z
              		
              		; Go get another sector
03BE: 10CC    		djnz	1$
03C0: C36D03  		jp	0$
              	
              		; Zero buffer and reset read flag
03C3: AF      	50$:	xor	a
03C4: 329811  		ld	(res_do_read),a
              		
03C7: 211611  		ld	hl,res_buffer
03CA: 111711  		ld	de,res_buffer+1
03CD: 017F00  		ld	bc,128-1
03D0: 77      		ld	(hl),a
03D1: EDB0    		ldir
              	
03D3: C9      		ret
              		
              	; Throws an error a missing resource
              	; Resource name will be last attempted to locate
              	;
              	; Does not return
              	; Uses: N/A
03D4:         	res_missing:
03D4: CD9C02  		call	zmm_set_real
              		
              		; Print error message
03D7: 0E09    		ld	c,bdos_print
03D9: 11E20C  		ld	de,str_missing
03DC: CD0500  		call	bdos
              		
              		; Print resource name
03DF: ED5B1411		ld	de,(res_current)
03E3: CDD404  		call	res_printzt
              		
              		; CRLF
03E6: 0E09    		ld	c,bdos_print
03E8: 11270E  		ld	de,str_crlf
03EB: CD0500  		call	bdos
              		
              		; Exit
03EE: C3F309  		jp	cpm_exit
              		
              	; Opens a file based on the resource argument
              	; If the file cannot be opened, an error will be thrown
              	; (res_argument) = File to open
              	;
              	; Returns nothing
              	; Uses: all
03F1:         	res_open:
              		; Virtual mode should be off while we do this
03F1: 3AFE10  		ld	a,(zmm_ctrl_state)
03F4: F5      		push	af
03F5: CD9C02  		call	zmm_set_real
              		
              		; Do function call
03F8: CD0204  		call	0$
              		
              		; Restore register
03FB: F1      		pop	af
03FC: 32FE10  		ld	(zmm_ctrl_state),a
03FF: C38B02  		jp	zmm_ctrl_set
              		
              		; Let the user know we are loading stuff
0402: 0E09    	0$:	ld	c,bdos_print
0404: 11A50C  		ld	de,str_load_a
0407: CD0500  		call	bdos
              		
              		; Print resource name
040A: ED5B1411		ld	de,(res_current)
040E: CDD404  		call	res_printzt
              		
              		; Next string
0411: 0E09    		ld	c,bdos_print
0413: 11AE0C  		ld	de,str_load_b
0416: CD0500  		call	bdos
              		
              		; Print file name
0419: 110311  		ld	de,res_argument
041C: CDD404  		call	res_printzt
              		
              		; CRLF
041F: 0E09    		ld	c,bdos_print
0421: 11270E  		ld	de,str_crlf
0424: CD0500  		call	bdos
              		
              		; Detect if there is an argument
0427: 3A0311  		ld	a,(res_argument)
042A: B7      		or	a
042B: C23904  		jp	nz,1$
              		
              		; No argument, error!
042E: 0E09    		ld	c,bdos_print
0430: 11B50C  		ld	de,str_arg_empty
0433: CD0500  		call	bdos
0436: C3F309  		jp	cpm_exit
              	
              		; Reset fields
0439: AF      	1$:	xor	a
043A: 219D11  		ld	hl,res_fcb
043D: 119E11  		ld	de,res_fcb+1
0440: 012300  		ld	bc ,36-1
0443: 77      		ld	(hl),a
0444: EDB0    		ldir
              		
0446: 3E20    		ld	a,0x20
0448: 219E11  		ld	hl,res_fcb_name
044B: 119F11  		ld	de,res_fcb_name+1
044E: 010A00  		ld	bc ,11-1
0451: 77      		ld	(hl),a
0452: EDB0    		ldir
              	
              		; Is there a prefix?
0454: 210311  		ld	hl,res_argument
0457: 3A0411  		ld	a,(res_argument+1)
045A: FE3A    		cp	':'
045C: C26E04  		jp	nz,2$
              		
              		; Set prefix
045F: 3A0311  		ld	a,(res_argument)
0462: D640    		sub	'A'-1
0464: FE11    		cp	17
0466: D2C904  		jp	nc,99$
0469: 329D11  		ld	(res_fcb_drive),a
046C: 23      		inc	hl
046D: 23      		inc	hl
              	
              		; HL = Proper filename start
046E: 0608    	2$:	ld	b,8
0470: 119E11  		ld	de,res_fcb_name
              		
              		; Copy it over
0473: 7E      	3$:	ld	a,(hl)
0474: B7      		or	a
0475: CAC904  		jp	z,99$
0478: FE2A    		cp	'*'
047A: CA8A04  		jp	z,4$
047D: FE2E    		cp	'.'
047F: CA9104  		jp	z,5$
0482: 12      		ld	(de),a
0483: 13      		inc	de
0484: 23      		inc	hl
0485: 10EC    		djnz	3$
0487: C39104  		jp	5$
              	
              		; Fill remains of FCB file name
048A: 3E3F    	4$:	ld	a,'?'
048C: 12      		ld	(de),a
048D: 13      		inc	de
048E: 10FA    		djnz	4$
0490: 23      		inc	hl
              	
              		; We should either see a '.' or a null character
0491: 7E      	5$:	ld	a,(hl)
0492: B7      		or	a
0493: CABA04  		jp	z,8$
0496: FE2E    		cp	'.'
0498: C2C904  		jp	nz,99$
049B: 23      		inc	hl
              		
              		; Fill in extension
049C: 0603    		ld	b,3
049E: 11A611  		ld	de,res_fcb_type
              		
              		; Copy it over
04A1: 7E      	6$:	ld	a,(hl)
04A2: B7      		or	a
04A3: CABA04  		jp	z,8$
04A6: FE2A    		cp	'*'
04A8: CAB304  		jp	z,7$
04AB: 12      		ld	(de),a
04AC: 13      		inc	de
04AD: 23      		inc	hl
04AE: 10F1    		djnz	6$
04B0: C3BA04  		jp	8$
              		
              		; Fill remains of FCB file extension
04B3: 3E3F    	7$:	ld	a,'?'
04B5: 12      		ld	(de),a
04B6: 13      		inc	de
04B7: 10D1    		djnz	4$
04B9: 23      		inc	hl
              	
              		; We should get a zero
04BA: 7E      	8$:	ld 	a,(hl)
04BB: B7      		or	a
04BC: C2C904  		jp	nz,99$
              		
              		; It is filled in, attempt to open
04BF: 0E0F    		ld	c,bdos_open
04C1: 119D11  		ld	de,res_fcb
04C4: CD0500  		call	bdos
              		
              		; Check error
04C7: 3C      		inc	a
04C8: C0      		ret	nz
              		
              		; Error!
04C9: 0E09    	99$:	ld	c,bdos_print
04CB: 11CC0C  		ld	de,str_arg_fail
04CE: CD0500  		call	bdos
04D1: C3F309  		jp	cpm_exit
              		
              		
              	; Print a zero terminated string
              	; We should be in real mode for this
              	; DE = String
              	;
              	; Returns nothing
              	; Uses: All
04D4:         	res_printzt:
04D4: 1A      	0$:	ld	a,(de)
04D5: B7      		or	a
04D6: C8      		ret	z
              		
              		; Print character
04D7: D5      		push	de
04D8: 5F      		ld	e,a
04D9: 0E02    		ld	c,bdos_con_out
04DB: CD0500  		call	bdos
04DE: D1      		pop	de
04DF: 13      		inc	de
04E0: C3D404  		jp	0$
              	
              	; Find a resource from the command line
              	; If the resource is found, the contents will be cached in memory
              	; DE = Name of resource (upper case only) 
              	;
              	; Returns A = 0xFF if no resource is found
              	; Uses: AF, BC, DE, HL
04E3:         	res_locate:
              		; Save resource
04E3: ED531411		ld	(res_current),de
              	
              		; Travel to the start of arguments
04E7: 218100  		ld	hl,cpm_command+1
04EA: 7E      	0$:	ld	a,(hl)
04EB: B7      		or	a
04EC: CA4905  		jp	z,99$
04EF: FE21    		cp	0x21
04F1: D2F804  		jp	nc,1$
04F4: 23      		inc	hl
04F5: C3EA04  		jp	0$
              		
              		; Found an argument
              		; Check it against the contents of (DE)
              		; Also must start with '-'
04F8: FE2D    	1$:	cp	'-'
04FA: C20B05  		jp	nz,3$
04FD: 23      		inc	hl
04FE: D5      		push	de
04FF: 1A      	2$:	ld	a,(de)
              		
              		; Check if at end of string
0500: B7      		or	a
0501: CA1905  		jp	z,4$
              		
              		; No? Well lets see if (de) = (hl)
0504: BE      		cp	(hl)
0505: 23      		inc	hl
0506: 13      		inc	de
0507: CAFF04  		jp	z,2$
              		
              		; Strings are different!
              		; Escape from the current argument and continue
050A: D1      		pop	de
050B: 7E      	3$:	ld	a,(hl)
050C: B7      		or	a
050D: CA4905  		jp	z,99$
0510: FE21    		cp	0x21
0512: DAEA04  		jp	c,0$
0515: 23      		inc	hl
0516: C30B05  		jp	3$
              	
              		; Make sure we are at the end of the argument as well
0519: D1      	4$: 	pop	de
051A: 7E      		ld	a,(hl)
051B: FE21    		cp	0x21
051D: D20B05  		jp	nc,3$
              		
              		; Ok, lets copy the argument into memory if it exists
0520: 110311  		ld	de,res_argument
0523: AF      		xor	a
0524: 12      		ld	(de),a
              		
              		; Travel to the start of the argument
0525: 7E      	5$:	ld	a,(hl)
0526: B7      		or	a
0527: CA4705  		jp	z,89$
052A: FE21    		cp	0x21
052C: D23305  		jp	nc,6$
052F: 23      		inc	hl
0530: C32505  		jp	5$
              	
              		; Make sure it doesn't start with '-'
0533: FE2D    	6$:	cp	'-'
0535: CA4705  		jp	z,89$
              		
              		; Ok, lets copy up 16 bytes of this
0538: 0610    		ld	b,arg_size
053A: 7E      	7$:	ld	a,(hl)
053B: FE21    		cp	0x21
053D: DA4505  		jp	c,8$
0540: 12      		ld	(de),a
0541: 23      		inc	hl
0542: 13      		inc	de
0543: 10F5    		djnz	7$
              	
              		; Zero terminate
0545: AF      	8$:	xor	a
0546: 12      		ld	(de),a
              		
              		; Good ending
0547: AF      	89$:	xor	a
0548: C9      		ret
              	
              		; Bad ending
0549: 3EFF    	99$:	ld	a,0xFF
054B: C9      		ret
              		
              	; -------------------------
              	; ******** Strings ********
              	; -------------------------
              	
              	.area	_DATA
              	
              	; Loading string components
0CA5:         	str_load_a:
0CA5: 4C4F4144		defb	'LOADING $'
0CA9: 494E4720	
0CAD: 24      	
              		
0CAE:         	str_load_b:
0CAE: 2046524F		defb	' FROM $'
0CB2: 4D2024  	
              		
              	; Error messages
0CB5:         	str_arg_empty:
0CB5: 4E4F2041		defb	'NO ARGUMENT PROVIDED',0x0A,0x0D,'$'
0CB9: 5247554D	
0CBD: 454E5420	
0CC1: 50524F56	
0CC5: 49444544	
0CC9: 0A0D24  	
              		
0CCC:         	str_arg_fail:
0CCC: 4641494C		defb	'FAILED TO OPEN FILE',0x0A,0x0D,'$'
0CD0: 45442054	
0CD4: 4F204F50	
0CD8: 454E2046	
0CDC: 494C450A	
0CE0: 0D24    	
              		
0CE2:         	str_missing:
0CE2: 4D495353		defb	'MISSING RESOURCE: $'
0CE6: 494E4720	
0CEA: 5245534F	
0CEE: 55524345	
0CF2: 3A2024  	
              		
              	; ---------------------------
              	; ******** Variables ********
              	; ---------------------------
              	
              	.area	_BSS
              	
              	; Stores a zero-terminated string for the resource argument
1103:         	res_argument:
1103: 00000000		defs	arg_size+1
1107: 00...   	
              		
              	; Current resource being accessed
1114:         	res_current:
1114: 0000    		defs	2
              		
              	; Resource buffer
1116:         	res_buffer:
1116: 00000000		defs	128
111A: 00...   	
              		
              	; Sector counter
1196:         	res_sectors:
1196: 0000    		defs	2
              		
              	; Do we need to read?
1198:         	res_do_read:
1198: 00      		defs	1
              		
              	; Resource bankmap
1199:         	res_bankmap:
1199: 0000    		defs	2
              		
              	; Loading pointer
119B:         	res_pointer:
119B: 0000    		defs	2
              		
              	; File control block for use in loading resources
119D:         	res_fcb:
119D: 00000000		defs	36
11A1: 00...   	
119D:         	res_fcb_drive	equ	res_fcb
119E:         	res_fcb_name	equ	res_fcb+1
11A6:         	res_fcb_type	equ	res_fcb+9
11A9:         	res_fcb_ex	equ	res_fcb+12
11AA:         	res_fcb_s1	equ	res_fcb+13
11AB:         	res_fcb_s2	equ	res_fcb+14
11AC:         	res_fcb_rc	equ	res_fcb+15
11AD:         	res_fcb_data	equ	res_fcb+16
11BD:         	res_fcb_cr	equ	res_fcb+32
11BE:         	res_fcb_r0	equ	res_fcb+33
11BF:         	res_fcb_r1	equ	res_fcb+34
11C0:         	res_fcb_r2	equ	res_fcb+35
              	#include "TRAP.asm"
              	;
              	;********************************************************************
              	;*
              	;*                     T R A P   H A N D L E R
              	;* 
              	;*    Responsible for handling various traps from the ZMM. Both
              	;*    interrupt and I/O traps will be pre-processed before being
              	;*    sent to the virtualization core for device-specific handling
              	;*
              	;********************************************************************
              	
              	; -------------------------------
              	; ********  Trap Handler ********
              	; -------------------------------
              	
              	.area	_TEXT
              	
              	; Entry point for traps
054C:         	trap_entry:
              		; Save value of SP
054C: ED73C111		ld	(trap_sp_value),sp
0550: 310070  		ld	sp,kri_stack
              		
              		; Save value of AF
0553: F5      		push	af
              		
              		; Check in on device interrupts
0554: CDF90B  		call	irq_handle
              		
              		; Grab the value of the ISR register
0557: DB30    		in	a,(zmm_isr)
              		
              		; Do we actually need to handle an I/O trap?
0559: B7      		or	a
055A: F23507  		jp	p,trap_continue
              		
              		; OK, a trap did occur.
              		; Are we doing "classic" I/O or extended I/O?
055D:         	trap_io:	
055D: FEE8    		cp	0b11101000
055F: DA7905  		jp	c,trap_io_ext
              		
              		; In or out?
0562: FEEC    		cp	0b11101100
0564: DA7005  	69$:	jp	c,0$
              		
              		; In it is
0567: CD0E0C  		call	in_handle
056A: 32FF6F  		ld	(trap_a_value),a
056D: C33507  		jp	trap_continue
              		
              		; Out it is
0570: 3AFF6F  	0$:	ld	a,(trap_a_value)
0573: CD400C  		call	out_handle
0576: C33507  		jp	trap_continue
              	
              	
              	; It's an extended I/O instruction
0579:         	trap_io_ext:
              	
              		; Input or output?
0579: 0F      		rrca
057A: DAEF05  		jp	c,trap_io_ex_out
              		
              		; Extended input instruction
              		; INI-class?
057D: 0F      		rrca
057E: DA4906  		jp	c,trap_io_inx
              		
              		; Left or right column
0581: 0F      		rrca
0582: DAAC05  		jp	c,0$
              		
              		; Left column
              		; B, D, H, or 0?
0585: 0F      		rrca
0586: DA9B05  		jp	c,1$
              		
              		; B or H?
0589: 0F      		rrca
058A: DA9405  		jp	c,2$
              		
              		; It's B
058D: CD0E0C  		call	in_handle
0590: 47      		ld	b,a
0591: C3D605  		jp	90$
              		
              		; It's H	
0594: CD0E0C  	2$:	call	in_handle
0597: 67      		ld	h,a
0598: C3D605  		jp	90$
              	
              		; D or 0?
059B: 0F      	1$:	rrca
059C: DAA605  		jp	c,3$
              	
              		; It's D
059F: CD0E0C  		call	in_handle
05A2: 57      		ld	d,a
05A3: C3D605  		jp	90$
              		
              		; It's 0
05A6: CD0E0C  	3$:	call	in_handle
05A9: C3D605  		jp	90$
              		
              		
              		; Right column
              		; C, E, L, or A?
05AC: 0F      	0$:	rrca
05AD: DAC205  		jp	c,4$
              		
              		; C or L?
05B0: 0F      		rrca
05B1: DABB05  		jp	c,5$
              		
              		; It's C
05B4: CD0E0C  		call	in_handle
05B7: 4F      		ld	c,a
05B8: C3D605  		jp	90$
              	
              		; It's L
05BB: CD0E0C  	5$:	call	in_handle
05BE: 6F      		ld	l,a
05BF: C3D605  		jp	90$
              		
              		; E or A?
05C2: 0F      	4$:	rrca
05C3: DACD05  		jp	c,6$
              		
              		; It's E
05C6: CD0E0C  		call	in_handle
05C9: 5F      		ld	e,a
05CA: C3D605  		jp	90$
              	
              		; It's A
05CD: CD0E0C  	6$:	call	in_handle
05D0: 32FF6F  		ld	(trap_a_value),a
05D3: C3D605  		jp	90$
              		
              		; Extended IN instructions require special flag states
              		; lets set them and return
05D6: E5      	90$:	push	hl
05D7: 21FE6F  		ld	hl,trap_f_value
05DA: CB46    		bit	0,(hl)
05DC: E1      		pop	hl
              		
              		; If it's zero, we don't need the carry flag
05DD: CAE805  		jp	z,91$ 
              		
              		; Update flags and persist carry flag
05E0: B7      		or	a
05E1: 37      		scf
05E2: 3AFF6F  		ld	a,(trap_a_value)
              		
              		; Do trap restore
05E5: C33607  		jp	trap_restore
              		
              		; Update flags and reset carry flag
05E8: B7      	91$:	or	a
05E9: 3AFF6F  		ld	a,(trap_a_value)
              		
              		; Do trap restore
05EC: C33607  		jp	trap_restore
              		
              	; Extended output instruction
05EF:         	trap_io_ex_out:
              	
              		; OUTI-class?
05EF: 0F      		rrca
05F0: DABF06  		jp	c,trap_io_outx
              		
              		; Left or right column?
05F3: 0F      		rrca
05F4: DA1F06  		jp	c,0$
              		
              		; Left column
              		; B, D, H, or 0?
05F7: 0F      		rrca
05F8: DA0D06  		jp	c,1$
              		
              		; B or H?
05FB: 0F      		rrca
05FC: DA0606  		jp	c,2$
              		
              		; It's B
05FF: 78      		ld	a,b
0600: CD400C  		call	out_handle
0603: C33507  		jp	trap_continue
              		
              		; It's H	
0606: 7C      	2$:	ld	a,h
0607: CD400C  		call	out_handle
060A: C33507  		jp	trap_continue
              	
              		; D or 0?
060D: 0F      	1$:	rrca
060E: DA1806  		jp	c,3$
              	
              		; It's D
0611: 7A      		ld	a,d
0612: CD400C  		call	out_handle
0615: C33507  		jp	trap_continue
              		
              		; It's 0
0618: AF      	3$:	xor	a
0619: CD400C  		call	out_handle
061C: C33507  		jp	trap_continue
              		
              		
              		; Right column
              		; C, E, L, or A?
061F: 0F      	0$:	rrca
0620: DA3506  		jp	c,4$
              		
              		; C or L?
0623: 0F      		rrca
0624: DA2E06  		jp	c,5$
              		
              		; It's C
0627: 79      		ld	a,c
0628: CD400C  		call	out_handle
062B: C33507  		jp	trap_continue
              	
              		; It's L
062E: 7D      	5$:	ld	a,l
062F: CD400C  		call	out_handle
0632: C33507  		jp	trap_continue
              		
              		; E or A?
0635: 0F      	4$:	rrca
0636: DA4006  		jp	c,6$
              		
              		; It's E
0639: 7B      		ld	a,e
063A: CD400C  		call	out_handle
063D: C33507  		jp	trap_continue
              	
              		; It's A
0640: 3AFF6F  	6$:	ld	a,(trap_a_value)
0643: CD400C  		call	out_handle
0646: C33507  		jp	trap_continue
              	
              	
              		; INX class instructions
              		; The CPU should handle the differences between INX and INXR
0649:         	trap_io_inx:
              		; Left or right column?
0649: 0F      		rrca
064A: DA8606  		jp	c,trap_io_ind
              		
              		; Left column, it's 'I' class
064D: E5      		push	hl
              		
              		; Attempt to figure out the original virtual address
064E: 2B      		dec	hl	; Decrement to reverse 'I' class instruction
064F: 7C      		ld	a,h
0650: 07      		rlca
0651: DA6406  		jp	c,0$
              		
              		; 0x0000 - 0x7FFF
0654: 07      		rlca
0655: DA5E06  		jp	c,1$
              		
              		; 0x0000 - 0x3FFF
0658: 3AFF10  		ld	a,(zmm_bnk0_state)
065B: C37106  		jp	3$
              		
              		; 0x4000 - 0x7FFF
065E: 3A0011  	1$:	ld	a,(zmm_bnk1_state)
0661: C37106  		jp	3$
              			
              		; 0x8000 - 0xFFFF
0664: 07      	0$:	rlca
0665: DA6E06  		jp	c,2$
              		
              		; 0x8000 - 0xBFFF
0668: 3A0111  		ld	a,(zmm_bnk2_state)
066B: C37106  		jp	3$
              	
              		; 0xC000 - 0xFFFF
066E: 3A0211  	2$:	ld	a,(zmm_bnk3_state)
              	
              		; Remove write protection and set
0671: E67F    	3$:	and	0b01111111
0673: D333    		out	(zmm_bnk3),a
              		
              		; Correct HL
0675: 3EC0    		ld	a,0b11000000
0677: B4      		or	h
0678: 67      		ld	h,a
              		
              		; Do the input
0679: CD0E0C  		call	in_handle
067C: 77      		ld	(hl),a
              		
              		; Fix banks
067D: 3A0211  		ld	a,(zmm_bnk3_state)
0680: D333    		out	(zmm_bnk3),a
              		
              		; Restore and continue
0682: E1      		pop	hl
0683: C33507  		jp	trap_continue
              		
              		; Right column, it's 'D' class
0686:         	trap_io_ind:
0686: E5      		push	hl
              		
              		; Attempt to figure out the original virtual address
0687: 23      		inc	hl	; Increment to reverse 'D' class instruction
0688: 7C      		ld	a,h
0689: 07      		rlca
068A: DA9D06  		jp	c,0$
              		
              		; 0x0000 - 0x7FFF
068D: 07      		rlca
068E: DA9706  		jp	c,1$
              		
              		; 0x0000 - 0x3FFF
0691: 3AFF10  		ld	a,(zmm_bnk0_state)
0694: C3AA06  		jp	3$
              		
              		; 0x4000 - 0x7FFF
0697: 3A0011  	1$:	ld	a,(zmm_bnk1_state)
069A: C3AA06  		jp	3$
              			
              		; 0x8000 - 0xFFFF
069D: 07      	0$:	rlca
069E: DAA706  		jp	c,2$
              		
              		; 0x8000 - 0xBFFF
06A1: 3A0111  		ld	a,(zmm_bnk2_state)
06A4: C3AA06  		jp	3$
              	
              		; 0xC000 - 0xFFFF
06A7: 3A0211  	2$:	ld	a,(zmm_bnk3_state)
              	
              		; Remove write protection and set
06AA: E67F    	3$:	and	0b01111111
06AC: D333    		out	(zmm_bnk3),a
              		
              		; Correct HL
06AE: 3EC0    		ld	a,0b11000000
06B0: B4      		or	h
06B1: 67      		ld	h,a
              		
              		; Do the input
06B2: CD0E0C  		call	in_handle
06B5: 77      		ld	(hl),a
              		
              		; Fix banks
06B6: 3A0211  		ld	a,(zmm_bnk3_state)
06B9: D333    		out	(zmm_bnk3),a
              		
              		; Restore and continue
06BB: E1      		pop	hl
06BC: C33507  		jp	trap_continue
              	
              		; OUTX-class instructions
              		; The CPU should handle the differences between OUTX and OTXR
06BF:         	trap_io_outx:
              	
              		; Left or right column?
06BF: 0F      		rrca
06C0: DAFC06  		jp	c,trap_io_outd
              		
              		; Left column, it's 'I' class
06C3: E5      		push	hl
              		
              		; Attempt to figure out the original virtual address
06C4: 2B      		dec	hl	; Decrement to reverse 'I' class instruction
06C5: 7C      		ld	a,h
06C6: 07      		rlca
06C7: DADA06  		jp	c,0$
              		
              		; 0x0000 - 0x7FFF
06CA: 07      		rlca
06CB: DAD406  		jp	c,1$
              		
              		; 0x0000 - 0x3FFF
06CE: 3AFF10  		ld	a,(zmm_bnk0_state)
06D1: C3E706  		jp	3$
              		
              		; 0x4000 - 0x7FFF
06D4: 3A0011  	1$:	ld	a,(zmm_bnk1_state)
06D7: C3E706  		jp	3$
              			
              		; 0x8000 - 0xFFFF
06DA: 07      	0$:	rlca
06DB: DAE406  		jp	c,2$
              		
              		; 0x8000 - 0xBFFF
06DE: 3A0111  		ld	a,(zmm_bnk2_state)
06E1: C3E706  		jp	3$
              	
              		; 0xC000 - 0xFFFF
06E4: 3A0211  	2$:	ld	a,(zmm_bnk3_state)
              	
              		; Remove write protection and set
06E7: E67F    	3$:	and	0b01111111
06E9: D333    		out	(zmm_bnk3),a
              		
              		; Correct HL
06EB: 3EC0    		ld	a,0b11000000
06ED: B4      		or	h
06EE: 67      		ld	h,a
              		
              		; Do the output
06EF: 7E      		ld	a,(hl)
06F0: CD400C  		call	out_handle
              		
              		; Fix banks
06F3: 3A0211  		ld	a,(zmm_bnk3_state)
06F6: D333    		out	(zmm_bnk3),a
              		
              		; Restore and continue
06F8: E1      		pop	hl
              		
06F9: C33507  		jp	trap_continue
              		
              		; Right column, it's 'D' class
06FC:         	trap_io_outd:
06FC: E5      		push	hl
              		
              		; Attempt to figure out the original virtual address
06FD: 23      		inc	hl	; Increment to reverse 'D' class instruction
06FE: 7C      		ld	a,h
06FF: 07      		rlca
0700: DA1307  		jp	c,0$
              		
              		; 0x0000 - 0x7FFF
0703: 07      		rlca
0704: DA0D07  		jp	c,1$
              		
              		; 0x0000 - 0x3FFF
0707: 3AFF10  		ld	a,(zmm_bnk0_state)
070A: C32007  		jp	3$
              		
              		; 0x4000 - 0x7FFF
070D: 3A0011  	1$:	ld	a,(zmm_bnk1_state)
0710: C32007  		jp	3$
              			
              		; 0x8000 - 0xFFFF
0713: 07      	0$:	rlca
0714: DA1D07  		jp	c,2$
              		
              		; 0x8000 - 0xBFFF
0717: 3A0111  		ld	a,(zmm_bnk2_state)
071A: C32007  		jp	3$
              	
              		; 0xC000 - 0xFFFF
071D: 3A0211  	2$:	ld	a,(zmm_bnk3_state)
              	
              		; Remove write protection and set
0720: E67F    	3$:	and	0b01111111
0722: D333    		out	(zmm_bnk3),a
              		
              		; Correct HL
0724: 3EC0    		ld	a,0b11000000
0726: B4      		or	h
0727: 67      		ld	h,a
              		
              		; Do the output
0728: 7E      		ld	a,(hl)
0729: CD400C  		call	out_handle
              		
              		; Fix banks
072C: 3A0211  		ld	a,(zmm_bnk3_state)
072F: D333    		out	(zmm_bnk3),a
              		
              		; Restore and continue
0731: E1      		pop	hl
0732: C33507  		jp	trap_continue
              	
              		
              	; Continue execution
0735:         	trap_continue:
              		; Restore AF
0735: F1      		pop	af
              		
              		; Restore stack and return
              		; Maybe invoke the debugger as well
0736:         	trap_restore:
              		
              		; Reset trap state
0736:         	trap_res_flag:
0736: 00      		nop
0737: 00      		nop
0738: 00      		nop
0739: D337    		out	(zmm_trap),a
              		
              		; Restore old SP
073B: ED7BC111		ld	sp,(trap_sp_value)
              		
              		; Go back to the virtual machine
073F: 00      		nop
0740: ED45    		retn
              		
              	; ----------------------------
              	; ********  Functions ********
              	; ----------------------------
              	
              	.area	_TEXT
              	
              	; Initalize trap handling stuff
              	;
              	; Returns nothing
              	; Uses: AF, HL
0742:         	trap_init:
              		; Install trap vector
0742: 3EC3    		ld	a,0xC3
0744: 326600  		ld	(nmi_address),a
0747: 214C05  		ld	hl,trap_entry
074A: 226700  		ld	(nmi_vector),hl
              		
074D: C9      		ret
              		
              		
              	
              	; ---------------------------
              	; ******** Variables ********
              	; ---------------------------
              	
              	.area	_BSS
              	
              	; Value of untrapped SP value
11C1:         	trap_sp_value:
11C1: 0000    		defs	2
              	#include "IRQ.asm"
              	;
              	;********************************************************************
              	;*
              	;*             I N T E R R U P T   M A N A G E M E N T
              	;* 
              	;*    Manages "real" system interrupts on the host hardware.
              	;*    Also deals with mocking interrupts to the virtual machine
              	;*    if it is needed.
              	;*
              	;********************************************************************
              	
              	; ----------------------------
              	; ********  Functions ********
              	; ----------------------------
              	
              	.area	_TEXT
              	
              	; Initalize interrupt stuff
              	;
              	; Returns nothing
              	; Uses: AF
074E:         	irq_init:
              		; Set up the AY-3-8910 I/O
              		; Make sure to only change the two most significant bits
074E: 3E07    		ld	a,7		; AY register = 7
0750: D341    		out	(nabu_ay_latch),a
0752: DB40    		in	a,(nabu_ay_data)
0754: E63F    		and	0x3F
0756: F640    		or	0x40
0758: D340    		out	(nabu_ay_data),a
              	
              	
              		; Mask off all interrupts
075A: 3E0E    		ld	a,14		; AY register = 14	
075C: D341    		out	(nabu_ay_latch),a
075E: AF      		xor	a
075F: D340    		out	(nabu_ay_data),a
0761: 32C311  		ld	(irq_mask_state),a
              		
              		; Return
0764: C9      		ret
              		
              		
              	; Turns on the VDP interrupt
              	;
              	; Returns nothing
              	; Uses: AF
0765:         	irq_vdp_on:
0765: 3AC311  		ld	a,(irq_mask_state)
0768: F610    		or	0b00010000
076A: 32C311  		ld	(irq_mask_state),a
              		
076D: C3D007  		jp	irq_restore
              		
              	; Turns off the VDP interrupt
              	;
              	; Returns nothing
              	; Uses: AF
0770:         	irq_vdp_off:
0770: 3AC311  		ld	a,(irq_mask_state)
0773: E6EF    		and	~0b00010000
0775: 32C311  		ld	(irq_mask_state),a
              		
0778: C3D007  		jp	irq_restore
              		
              	; Turns on the keyboard interrupt
              	;
              	; Returns nothing
              	; Uses: AF
077B:         	irq_keyb_on:
077B: 3AC311  		ld	a,(irq_mask_state)
077E: F620    		or	0b00100000
0780: 32C311  		ld	(irq_mask_state),a
              		
0783: C3D007  		jp	irq_restore
              		
              	; Turns off the keyboard interrupt
              	;
              	; Returns nothing
              	; Uses: AF
0786:         	irq_keyb_off:
0786: 3AC311  		ld	a,(irq_mask_state)
0789: E6DF    		and	~0b00100000
078B: 32C311  		ld	(irq_mask_state),a
              		
078E: C3D007  		jp	irq_restore
              	
              	; Turns on the HCCA output
              	;
              	; Returns nothing
              	; Uses: AF
0791:         	irq_hcca_o_on:
0791: 3AC311  		ld	a,(irq_mask_state)
0794: F640    		or	0b01000000
0796: 32C311  		ld	(irq_mask_state),a
              		
0799: C3D007  		jp	irq_restore
              		
              	; Turns off the HCCA output
              	;
              	; Returns nothing
              	; Uses: AF
079C:         	irq_hcca_o_off:
079C: 3AC311  		ld	a,(irq_mask_state)
079F: E6BF    		and	~0b01000000
07A1: 32C311  		ld	(irq_mask_state),a
              		
07A4: C3D007  		jp	irq_restore
              		
              	; Turns on the HCCA input
              	;
              	; Returns nothing
              	; Uses: AF
07A7:         	irq_hcca_i_on:
07A7: 3AC311  		ld	a,(irq_mask_state)
07AA: F680    		or	0b10000000
07AC: 32C311  		ld	(irq_mask_state),a
              		
07AF: C3D007  		jp	irq_restore
              		
              	; Turns off the HCCA input
              	;
              	; Returns nothing
              	; Uses: AF
07B2:         	irq_hcca_i_off:
07B2: 3AC311  		ld	a,(irq_mask_state)
07B5: E67F    		and	~0b10000000
07B7: 32C311  		ld	(irq_mask_state),a
              		
07BA: C3D007  		jp	irq_restore
              		
              	; Returns the IRQ status byte
              	;
              	; Returns A = IRQ status
              	; Uses: AF
07BD:         	irq_status:
              		; Set up the AY-3-8910 I/O
              		; Make sure to only change the two most significant bits
07BD: 3E07    		ld	a,7		; AY register = 7
07BF: D341    		out	(nabu_ay_latch),a
07C1: DB40    		in	a,(nabu_ay_data)
07C3: E63F    		and	0x3F
07C5: F640    		or	0x40
07C7: D340    		out	(nabu_ay_data),a
              	
              	
              		; Mask off interrupt
07C9: 3E0F    		ld	a,15		; AY register = 15	
07CB: D341    		out	(nabu_ay_latch),a
07CD: DB40    		in	a,(nabu_ay_data)
07CF: C9      		ret
              		
              	; Restore the IRQ mask from 
              	;
              	; Returns nothing
              	; Uses: AF
07D0:         	irq_restore:
              		; Set up the AY-3-8910 I/O
              		; Make sure to only change the two most significant bits
07D0: 3E07    		ld	a,7		; AY register = 7
07D2: D341    		out	(nabu_ay_latch),a
07D4: DB40    		in	a,(nabu_ay_data)
07D6: E63F    		and	0x3F
07D8: F640    		or	0x40
07DA: D340    		out	(nabu_ay_data),a
              	
              	
              		; Mask off interrupt
07DC: 3E0E    		ld	a,14		; AY register = 14	
07DE: D341    		out	(nabu_ay_latch),a
07E0: 3AC311  		ld	a,(irq_mask_state)
07E3: D340    		out	(nabu_ay_data),a
07E5: C9      		ret
              		
              	; ---------------------------
              	; ******** Variables ********
              	; ---------------------------
              	
              	.area	_BSS
              	
              	; Value interrupt mask
11C3:         	irq_mask_state:
11C3: 00      		defs	1
              	#include "DEBUG.asm"
              	;
              	;**************************************************************
              	;*
              	;*        V I R T U A L   M A C H I N E   D E B U G G E R
              	;*
              	;*    Proves a machine-language monitor for debugging the
              	;*    virtual machine. Does standard monitor stuff.
              	;* 
              	;**************************************************************
              	
              	; ---------------------------
              	; ********  Debugger ********
              	; ---------------------------
              	
              	.area	_TEXT
              	
              	; Handle for the debugger
07E6:         	debug_handle:
              	
              		; Save machine context
07E6: ED73C711		ld	(debug_temp),sp
07EA: 31E211  		ld	sp,debug_state
              		
              		; Dump registers
07ED: F5      		push	af
07EE: C5      		push	bc
07EF: D5      		push	de
07F0: E5      		push	hl
07F1: D9      		exx
07F2: 08      		ex	af,af'
07F3: F5      		push	af
07F4: C5      		push	bc
07F5: D5      		push	de
07F6: E5      		push	hl
07F7: DDE5    		push	ix
07F9: FDE5    		push	iy
              		
07FB: ED7BC711		ld	sp,(debug_temp)
              		
              		; Check to see if we are skipping over stuff
07FF: 3ACB11  		ld	a,(debug_f_over)
0802: B7      		or	a
0803: CA1608  		jp	z,0$
              		
              		; Check stack pointer
0806: 2AC111  		ld	hl,(trap_sp_value)
0809: ED5BCC11		ld	de,(debug_over_sp)
080D: ED52    		sbc	hl,de
080F: C22A09  		jp	nz,debug_continue
              		
              		; Reset over flag
0812: AF      		xor	a
0813: 32CB11  		ld	(debug_f_over),a
              		
0816:         	0$:
              		
              		; Debugger stuff starts here
              		; Populate register dump string
0816: 01E211  		ld	bc,debug_state
0819: 21530D  		ld	hl,str_rdump_af
081C: CD4C09  		call	debug_rtohex
081F: 215C0D  		ld	hl,str_rdump_bc
0822: CD4C09  		call	debug_rtohex
0825: 21650D  		ld	hl,str_rdump_de
0828: CD4C09  		call	debug_rtohex
082B: 216E0D  		ld	hl,str_rdump_hl
082E: CD4C09  		call	debug_rtohex
0831: 217B0D  		ld	hl,str_rdump_aaf
0834: CD4C09  		call	debug_rtohex
0837: 21840D  		ld	hl,str_rdump_abc
083A: CD4C09  		call	debug_rtohex
083D: 218D0D  		ld	hl,str_rdump_ade
0840: CD4C09  		call	debug_rtohex
0843: 21960D  		ld	hl,str_rdump_ahl
0846: CD4C09  		call	debug_rtohex
0849: 21A30D  		ld	hl,str_rdump_ix
084C: CD4C09  		call	debug_rtohex
084F: 21AC0D  		ld	hl,str_rdump_iy
0852: CD4C09  		call	debug_rtohex
              		
              		; Display stack pointer
0855: 2AC111  		ld	hl,(trap_sp_value)
0858: 23      		inc	hl
0859: 23      		inc	hl
085A: 7C      		ld	a,h
085B: CDFB09  		call	tohex
085E: ED53190D		ld	(str_rdump_sp),de
0862: 7D      		ld	a,l
0863: CDFB09  		call	tohex
0866: ED531B0D		ld	(str_rdump_sp+2),de
              			
              		; Extract PC from capture area
086A: 2AC111  		ld	hl,(trap_sp_value)
086D: 7C      		ld	a,h
086E: E67F    		and	zmm_capt_res
0870: F670    		or	zmm_capt_set
0872: 67      		ld	h,a
0873: 7E      		ld	a,(hl)
0874: 32C911  		ld	(debug_pc_state),a
0877: CDFB09  		call	tohex
087A: ED53120D		ld	(str_rdump_pc+2),de
087E: 23      		inc	hl
087F: 7C      		ld	a,h
0880: E67F    		and	zmm_capt_res
0882: F670    		or	zmm_capt_set
0884: 67      		ld	h,a
0885: 7E      		ld	a,(hl)
0886: 32CA11  		ld	(debug_pc_state+1),a
0889: CDFB09  		call	tohex
088C: ED53100D		ld	(str_rdump_pc),de
              		
              		; Display instruction
0890: 2AC911  		ld	hl,(debug_pc_state)
0893: CD6501  		call	mem_fvbyte
0896: CDFB09  		call	tohex
0899: ED53240D		ld	(str_rdump_isr),de
089D: 23      		inc	hl
089E: CD6501  		call	mem_fvbyte
08A1: CDFB09  		call	tohex
08A4: ED53260D		ld	(str_rdump_isr+2),de
08A8: 23      		inc	hl
08A9: CD6501  		call	mem_fvbyte
08AC: CDFB09  		call	tohex
08AF: ED53280D		ld	(str_rdump_isr+4),de
08B3: 23      		inc	hl
08B4: CD6501  		call	mem_fvbyte
08B7: CDFB09  		call	tohex
08BA: ED532A0D		ld	(str_rdump_isr+6),de
              		
              		; Get interrupt status
08BE: ED57    		ld	a,i
08C0: 3E2D    		ld	a,'-'
08C2: E2C708  		jp	po,1$
08C5: 3E58    		ld	a,'X'
08C7: 32420D  	1$:	ld	(str_rdump_ei),a
              	
              		; Get I/O trap status
08CA: DB30    		in	a,(zmm_isr)
08CC: B7      		or	a
08CD: 3E2D    		ld 	a,'-'
08CF: F2D408  		jp	p,2$
08D2: 3E58    		ld	a,'X'
08D4: 32490D  	2$:	ld	(str_rdump_io),a
              	
              		; Copy flags
08D7: 11350D  		ld	de,str_rdump_flag
08DA: 21020D  		ld	hl,debug_flags
08DD: 3AE011  		ld	a,(debug_state-2)
08E0: 0608    		ld	b,8
08E2: 4F      		ld	c,a
08E3: 7E      	3$:	ld	a,(hl)
08E4: CB21    		sla	c
08E6: DAEB08  		jp	c,4$
08E9: 3E2D    		ld	a,'-'
08EB: 12      	4$:	ld	(de),a
08EC: 23      		inc	hl
08ED: 13      		inc	de
08EE: 10F3    		djnz	3$
              		
              		
              		; Print
08F0: 110A0D  		ld	de,str_rdump
08F3: CDB909  		call	cpm_print
              		
              	; Query the user for an operation to perform
08F6:         	debug_query:
08F6: CDDF09  		call	cpm_getc
08F9: 79      		ld	a,c
              		
              		; Exit?
08FA: FE1B    		cp	0x1B
08FC: CAF309  		jp	z,cpm_exit
              		
              		; Over?
08FF: FE4F    		cp	'O'
0901: CA0C09  		jp	z,debug_over
              		
              		; Upper?
0904: FE55    		cp	'U'
0906: CA1A09  		jp	z,debug_upper
              		
              		
              		; Ok, just continue then
0909: C32A09  		jp	debug_continue
              	
              	
              	;	ld	de,str_prompt
              	;	call	cpm_print
              	;	ld	de,input_buff
              	;	call	cpm_input
              	
              		
              	; Do not enter debugger until stack is equal to the original value
090C:         	debug_over:
090C: 2AC111  		ld	hl,(trap_sp_value)
090F: 22CC11  		ld	(debug_over_sp),hl
              		
0912: 3EFF    		ld	a,0xFF
0914: 32CB11  		ld	(debug_f_over),a
              		
0917: C32A09  		jp	debug_continue
              		
              	; Do not enter debugger until current function has been returned from
091A:         	debug_upper:
091A: 2AC111  		ld	hl,(trap_sp_value)
091D: 23      		inc	hl
091E: 23      		inc	hl
091F: 22CC11  		ld	(debug_over_sp),hl
              		
0922: 3EFF    		ld	a,0xFF
0924: 32CB11  		ld	(debug_f_over),a
              		
0927: C32A09  		jp	debug_continue	
              		
              	; Go back to the virutal machine
092A:         	debug_continue:
              		
              		; Restore IRQ state
092A: CDD007  		call	irq_restore
              		
              		; Restore machine context
092D: ED73C711		ld	(debug_temp),sp
0931: 31CE11  		ld	sp,debug_state-20
              		
              		; Restore registers
0934: FDE1    		pop	iy
0936: DDE1    		pop	ix
0938: E1      		pop	hl
0939: D1      		pop	de
093A: C1      		pop	bc
093B: F1      		pop	af
093C: D9      		exx
093D: 08      		ex	af,af'
093E: E1      		pop	hl
093F: D1      		pop	de
0940: C1      		pop	bc
0941: F1      		pop	af
              		
              		; Go back to trap handler
0942: ED7BC711		ld	sp,(debug_temp)
0946: C9      		ret
              	
              	
              	; ----------------------------
              	; ********  Functions ********
              	; ----------------------------
              	
              	.area	_TEXT
              	
              	
              	; Initalize the debugger
              	;
              	; Returns nothing
              	; Uses: AF
0947:         	debug_init:
              		
              		; Reset flags
0947: AF      		xor	a
0948: 32CB11  		ld	(debug_f_over),a
              		
094B: C9      		ret
              	
              	; Converts a register to hexadecimal
              	; BC = Address of register value
              	; HL = Address of hex string
              	;
              	; Returns BC=BC=2
              	; Uses: AF, BC, DE, HL
094C:         	debug_rtohex:
094C: 0B      		dec	bc
094D: 0A      		ld	a,(bc)
094E: C5      		push	bc
094F: CDFB09  		call	tohex
0952: C1      		pop	bc
0953: 73      		ld	(hl),e
0954: 23      		inc	hl
0955: 72      		ld	(hl),d
0956: 23      		inc	hl
0957: 0B      		dec	bc
0958: 0A      		ld	a,(bc)
0959: C5      		push	bc
095A: CDFB09  		call 	tohex
095D: C1      		pop	bc
095E: 73      		ld	(hl),e
095F: 23      		inc	hl
0960: 72      		ld	(hl),d
0961: C9      		ret
              	
              	; Bind the debugger to the trap handler
              	; Any trap can now be used to invoke the machine language monitor
              	;
              	; Returns nothing
              	; Uses: A, HL
0962:         	debug_bind:
              	
              		; Save previous binding
0962: 3A3607  		ld	a,(trap_res_flag)
0965: 2A3707  		ld	hl,(trap_res_flag+1)
0968: 32C411  		ld	(debug_pbind),a
096B: 22C511  		ld	(debug_pbind+1),hl
              		
              		; Bind debugger handle
096E: 3ECD    		ld	a,0xCD
0970: 21E607  		ld	hl,debug_handle
0973: 323607  		ld	(trap_res_flag),a
0976: 223707  		ld	(trap_res_flag+1),hl
              		
0979: C9      		ret
              		
              	; Unbind the debugger and allow traps to process normally
              	;
              	; Returns nothjing
              	; Uses: A, HL
097A:         	debug_unbind:
              		
              		; Restore previous binding
097A: 3AC411  		ld	a,(debug_pbind)
097D: 2AC511  		ld	hl,(debug_pbind+1)
0980: 323607  		ld	(trap_res_flag),a
0983: 223707  		ld	(trap_res_flag+1),hl
              		
0986: C9      		ret
              		
              	; Print the contexts of register A onto the terminal
              	; This should really only be used in early system debugging
              	; A = Byte to print
              	;
              	; Returns nothing
              	; Uses: All
0987:         	debug_puta:
0987: CDFB09  		call	tohex
098A: ED53FD0C		ld	(str_debug_val),de
098E: 11F50C  		ld	de,str_debug
0991: C3B909  		jp	cpm_print
              		
              		
              		
              	; -------------------------
              	; ******** Strings ********
              	; -------------------------
              	
              	.area	_DATA
              	
              	; Debug string
0CF5:         	str_debug:
0CF5: 52454720		defb 	'REG A = '
0CF9: 41203D20	
0CFD:         	str_debug_val:
0CFD: 58580A0D		defb	'XX',0x0A,0x0D,'$'
0D01: 24      	
              		
              	; Flag template
0D02:         	debug_flags:
0D02: 535A3548		defb	'SZ5H3PNC'
0D06: 33504E43	
              	
              	; Register dump string
0D0A:         	str_rdump:
0D0A: 1E17    		defb	0x1E,0x17
0D0C: 50433A20		defb	'PC: '
0D10:         	str_rdump_pc:
0D10: 58585858		defb	'XXXX SP: '
0D14: 2053503A	
0D18: 20      	
0D19:         	str_rdump_sp:
0D19: 58585858		defb	'XXXX NEXT: '
0D1D: 204E4558	
0D21: 543A20  	
0D24:         	str_rdump_isr:
0D24: 58585858		defb	'XXXXXXXX',0x0A,0x0D
0D28: 58585858	
0D2C: 0A0D    	
              	
0D2E: 464C4147		defb	'FLAGS: '
0D32: 533A20  	
0D35:         	str_rdump_flag:
0D35: 2D2D2D2D		defb	'-------- EI: '
0D39: 2D2D2D2D	
0D3D: 2045493A	
0D41: 20      	
0D42:         	str_rdump_ei:
0D42: 2D20492F		defb	'- I/O: '
0D46: 4F3A20  	
0D49:         	str_rdump_io:
0D49: 2D0A0D  		defb	'-',0x0A,0x0D
              		
0D4C: 523D2041		defb	'R= AF: '
0D50: 463A20  	
0D53:         	str_rdump_af:
0D53: 58585858		defb	'XXXX BC: '
0D57: 2042433A	
0D5B: 20      	
0D5C:         	str_rdump_bc:
0D5C: 58585858		defb	'XXXX DE: '
0D60: 2044453A	
0D64: 20      	
0D65:         	str_rdump_de:
0D65: 58585858		defb	'XXXX HL: '
0D69: 20484C3A	
0D6D: 20      	
0D6E:         	str_rdump_hl:
0D6E: 58585858		defb	'XXXX',0x0A,0x0D
0D72: 0A0D    	
              		
0D74: 583D2041		defb	'X= AF: '
0D78: 463A20  	
0D7B:         	str_rdump_aaf:
0D7B: 58585858		defb	'XXXX BC: '
0D7F: 2042433A	
0D83: 20      	
0D84:         	str_rdump_abc:
0D84: 58585858		defb	'XXXX DE: '
0D88: 2044453A	
0D8C: 20      	
0D8D:         	str_rdump_ade:
0D8D: 58585858		defb	'XXXX HL: '
0D91: 20484C3A	
0D95: 20      	
0D96:         	str_rdump_ahl:
0D96: 58585858		defb	'XXXX',0x0A,0x0D
0D9A: 0A0D    	
              		
0D9C: 453D2049		defb	'E= IX: '
0DA0: 583A20  	
0DA3:         	str_rdump_ix:
0DA3: 58585858		defb	'XXXX IY: '
0DA7: 2049593A	
0DAB: 20      	
0DAC:         	str_rdump_iy:
0DAC: 58585858		defb	'XXXX',0x0A,0x0D,'$'
0DB0: 0A0D24  	
              		
              	; Debug prompt
0DB3:         	str_prompt
0DB3: 0A0D2A24		defb	0x0A,0x0D,'*','$'
              		
              	; Input buffer
0DB7:         	input_buff:
0DB7: 28      		defb	40
0DB8: 00000000		defs	41
0DBC: 00...   	
              		
              	; ---------------------------
              	; ******** Variables ********
              	; ---------------------------
              	
              	.area	_BSS
              	
              	; Previous trap bind
11C4:         	debug_pbind:
11C4: 000000  		defs	3
              		
              	; General purpose memory register
              	; Usually used in context swaps
11C7:         	debug_temp:
11C7: 0000    		defs	2
              		
              	; Debug program counter value
11C9:         	debug_pc_state:
11C9: 0000    		defs	2
              		
              	; Debug skip over flag
11CB:         	debug_f_over:
11CB: 00      		defs	1
              		
              	; Debug skip over stack value
11CC:         	debug_over_sp:
11CC: 0000    		defs	2
              		
              	; Machine state
              	; IY	-20
              	; IX	-18
              	; 'HL	-16
              	; 'DE	-14
              	; 'BC	-12
              	; 'AF 	-10
              	; HL	-8
              	; DE	-6
              	; BC	-4
              	; AF	-2
              	; --- TOP ---
11CE: 00000000		defs	20
11D2: 00...   	
11E2:         	debug_state:
              	
              	; --------------------------------
              	; ******** KRISYS Startup ********
              	; --------------------------------
              	
              	.area	_TEXT
              		
              		; KRISYS entry point
0994:         	kri_start:	
              		; Set up stack
0994: F3      		di
0995: 310070  		ld	sp,kri_stack
0998: 21F309  		ld	hl,cpm_exit
099B: E5      		push	hl
              		
              		; Print "hello" splash
099C: 0E09    		ld	c,bdos_print
099E: 11E10D  		ld	de,str_splash
09A1: CD0500  		call	bdos
              		
              		; Initalize subcomponents
09A4: CD4E07  		call	irq_init
09A7: CDFC01  		call	zmm_init
09AA: CD4207  		call	trap_init
09AD: CD0301  		call	mem_map_init
09B0: CD4103  		call	res_init
09B3: CD4709  		call 	debug_init
              		
              		; Start the core
09B6: C3D10A  		jp	core_start
              		
              	; ------------------------------
              	; ******** CP/M Service ********
              	; ------------------------------
              		
              	; Print something to the CP/M console
              	; DE = Address of string to print
              	;
              	; Returns nothing
              	; Uses: All
09B9:         	cpm_print:
              		; Save control register state
09B9: 3AFE10  		ld	a,(zmm_ctrl_state)
09BC: F5      		push	af
              		
              		; Go to real mode
09BD: CD9C02  		call zmm_set_real
              		
              		; Do BDOS call
09C0: 0E09    		ld	c,bdos_print
09C2: CD0500  		call	bdos
              		
              		; Restore register
09C5: F1      		pop	af
09C6: 32FE10  		ld	(zmm_ctrl_state),a
09C9: C38B02  		jp	zmm_ctrl_set
              		
              	; Gets a line of input from the console
              	; DE = Address of result
              	;
              	; Returns nothing
              	; Uses: All
09CC:         	cpm_input:
              		; Save control register state
09CC: 3AFE10  		ld	a,(zmm_ctrl_state)
09CF: F5      		push	af
              		
              		; Go to real mode
09D0: CD9C02  		call zmm_set_real
              		
              		; Do BDOS call
09D3: 0E0A    		ld	c,bdos_input
09D5: CD0500  		call	bdos
              		
              		; Restore register
09D8: F1      		pop	af
09D9: 32FE10  		ld	(zmm_ctrl_state),a
09DC: C38B02  		jp	zmm_ctrl_set
              		
              	; Gets a character from the console
              	;
              	; Returns C = character returns
              	; Uses: All
09DF:         	cpm_getc:
              		; Save control register state
09DF: 3AFE10  		ld	a,(zmm_ctrl_state)
09E2: F5      		push	af
              		
              		; Go to real mode
09E3: CD9C02  		call zmm_set_real
              		
              		; Do BDOS call
09E6: 0E01    		ld	c,bdos_con_in
09E8: CD0500  		call	bdos
09EB: 4F      		ld	c,a
              		
              		; Restore register
09EC: F1      		pop	af
09ED: 32FE10  		ld	(zmm_ctrl_state),a
09F0: C38B02  		jp	zmm_ctrl_set
              		
              	; Go back to CP/M
              	;
              	; Does not return
              	; Uses: N/A
09F3:         	cpm_exit:
09F3: CD9C02  		call	zmm_set_real
09F6: 0E00    		ld	c,bdos_exit
09F8: CD0500  		call	bdos	
              		
              	; ----------------------
              	; ******** Misc ********
              	; ----------------------
              		
              	; Converts the value into an 8 bit hex number
              	; A = Number to convert
              	;
              	; Returns DE = result
              	; Uses: AF, DE
09FB: 57      	tohex:	ld	d,a
09FC: CD060A  		call	0$
09FF: 5F      		ld	e,a
0A00: 7A      		ld	a,d
0A01: CD0A0A  		call	1$
0A04: 57      		ld	d,a
0A05: C9      		ret
              		
0A06: 1F      	0$:	rra
0A07: 1F      		rra
0A08: 1F      		rra
0A09: 1F      		rra
0A0A: F6F0    	1$:	or	0xF0
0A0C: 27      		daa
0A0D: C6A0    		add	a,0xA0
0A0F: CE40    		adc	a,0x40
0A11: C9      		ret
              	
              	; -------------------------
              	; ******** Strings ********
              	; -------------------------
              	
              	.area	_DATA
              	
              	; Inital string that prints when the program is started
0DE1:         	str_splash:
0DE1: 4944454E		defb	'IDENTITY KRISYS HYPERVISOR, CP/M EDT.',0x0A,0x0D
0DE5: 54495459	
0DE9: 204B5249	
0DED: 53595320	
0DF1: 48595045	
0DF5: 52564953	
0DF9: 4F522C20	
0DFD: 43502F4D	
0E01: 20454454	
0E05: 2E0A0D  	
0E08: 5645522E		defb	'VER. 0.0.1, GAVIN TERSTEEG 2024'
0E0C: 20302E30	
0E10: 2E312C20	
0E14: 47415649	
0E18: 4E205445	
0E1C: 52535445	
0E20: 45472032	
0E24: 303234  	
              		
              	; Carriage return, line break
0E27:         	str_crlf:
0E27: 0A0D24  		defb	0x0A,0x0D,'$' 
              		
              	#include "SN76489.asm"
              	;
              	;**************************************************************
              	;*
              	;*         S N 7 6 4 8 9   P S G   E M U L A T O R
              	;*
              	;*    Translates audio data meant for a SN76489 PSG into
              	;*    commands for the AY-3-8910.
              	;*
              	;*    This translation isn't perfect, but for most games
              	;*    it's "good enough".
              	;* 
              	;**************************************************************
              	
              	
              	; ----------------------------
              	; ********  Functions ********
              	; ----------------------------
              	
              	.area	_TEXT
              	
              	; Reset the PSG emulator
              	;
              	; Returns nothing
              	; Uses: AF, HL
0A12:         	snpsg_reset:
              	
              		; Reset registers
0A12: 210000  		ld	hl,0
0A15: 22E211  		ld	(snpsg_freq),hl
0A18: 22E411  		ld	(snpsg_freq+2),hl
0A1B: 22E611  		ld	(snpsg_freq+4),hl
              	
0A1E: 3E0F    		ld	a,0x0F
0A20: 32E811  		ld	(snpsg_atten),a
0A23: 32E911  		ld	(snpsg_atten+1),a
0A26: 32EA11  		ld	(snpsg_atten+2),a
0A29: 32EB11  		ld	(snpsg_atten+3),a
              	
0A2C: AF      		xor	a
0A2D: 32EC11  		ld	(snpsg_n_ctrl),a
              	
              		; Reset AY-3-8910
0A30: 3E07    		ld	a,7
0A32: D341    		out	(nabu_ay_latch),a
0A34: 3E7F    		ld	a,0b01111111
0A36: D340    		out	(nabu_ay_data),a
              	
0A38: C9      		ret
              		
              		
              		
              		
              	; Send a byte to the "SN76489"
              	; A = Byte to send
              	;
              	; Uses: AF
0A39:         	snpsg_send:
0A39: C5      		push	bc
0A3A: E5      		push 	hl
              		
              		; Save latest command byte
0A3B: 47      		ld	b,a
0A3C: 0E00    		ld	c,0
              		
              		; Check bit 7
0A3E: 07      		rlca
0A3F: D2870A  		jp	nc,30$
              		
              		; Get register offset
0A42: 07      		rlca
0A43: CB11    		rl	c
0A45: 07      		rlca
0A46: CB11    		rl	c
              		
              		; Frequency or attenuation?
0A48: 07      		rlca
0A49: D2610A  		jp	nc,10$
              		
              		; Attenuation
0A4C: 78      		ld	a,b
0A4D: E60F    		and	0b00001111
0A4F: 0600    		ld	b,0
0A51: 21E811  		ld	hl,snpsg_atten
0A54: 09      		add	hl,bc
              		
              		; Translate attenuation
0A55: E5      		push	hl
0A56: 4F      		ld	c,a
0A57: 212A0E  		ld	hl,snpsg_vol_tab
0A5A: 09      		add	hl,bc
0A5B: 7E      		ld	a,(hl)
0A5C: E1      		pop	hl
0A5D: 77      		ld	(hl),a
0A5E: C39F0A  		jp	80$
              		
              		; Frequency (maybe)
0A61: 3E03    	10$:	ld	a,0x03
0A63: B9      		cp	c
0A64: CA7E0A  		jp	z,20$
              	
              		; Frequency (low bits)
0A67: 78      		ld	a,b
0A68: 0600    		ld	b,0
0A6A: CB21    		sla	c
0A6C: 21E211  		ld	hl,snpsg_freq
0A6F: 09      		add	hl,bc
0A70: E60F    		and	0b00001111
0A72: 47      		ld	b,a
0A73: 7E      		ld	a,(hl)
0A74: E6F0    		and	0b11110000
0A76: B0      		or	b
0A77: 77      		ld	(hl),a
0A78: 22ED11  		ld	(snpsg_lastf),hl
0A7B: C39F0A  		jp	80$
              		
              		; Noise control
0A7E: 78      	20$:	ld	a,b
0A7F: E60F    		and	0b00001111
0A81: 32EC11  		ld	(snpsg_n_ctrl),a
0A84: C39F0A  		jp	80$
              		
              		; Frequency (high bits)
0A87: 78      	30$:	ld	a,b
0A88: 0600    		ld	b,0
0A8A: 07      		rlca
0A8B: 07      		rlca
0A8C: 07      		rlca
0A8D: CB10    		rl	b
0A8F: 07      		rlca
0A90: CB10    		rl	b
0A92: E6F0    		and	0b11110000
0A94: 4F      		ld	c,a
0A95: 2AED11  		ld	hl,(snpsg_lastf)
0A98: 3E0F    		ld	a,0b00001111
0A9A: A6      		and	(hl)
0A9B: B1      		or	c
0A9C: 77      		ld	(hl),a
0A9D: 23      		inc	hl
0A9E: 70      		ld	(hl),b
              		
              		; Update the state to the AY-3-8910
0A9F: 3E00    	80$:	ld	a,0
0AA1: 0E40    		ld	c,nabu_ay_data
0AA3: 21E211  		ld	hl,snpsg_freq
              		
              		; Set frequency
0AA6: D341    	81$:	out	(nabu_ay_latch),a
0AA8: EDA3    		outi
0AAA: 3C      		inc	a
0AAB: FE06    		cp	6
0AAD: C2A60A  		jp	nz,81$
              		
              		; Set channel mask
0AB0: 3E07    		ld	a,7
0AB2: D341    		out	(nabu_ay_latch),a
0AB4: 3E78    		ld	a,0b01111000
0AB6: D340    		out	(nabu_ay_data),a
              		
              		; Set amplitude
0AB8: 21E811  		ld	hl,snpsg_atten
0ABB: 0E08    		ld	c,8
0ABD: 0603    		ld	b,3
0ABF: 79      	82$:	ld	a,c
0AC0: D341    		out	(nabu_ay_latch),a
0AC2: 7E      		ld	a,(hl)
0AC3: FE0F    		cp	0x0F
0AC5: C2C90A  		jp	nz,83$
0AC8: AF      		xor	a
0AC9: D340    	83$:	out	(nabu_ay_data),a
0ACB: 0C      		inc	c
0ACC: 10F1    		djnz	82$
              		
0ACE: E1      	99$	pop	hl
0ACF: C1      		pop	bc
0AD0: C9      		ret
              	
              	; -------------------------
              	; ******** Tables ********
              	; -------------------------
              	
              	.area	_DATA
              	
              	; Volume translation table
              	; Translates SN attenuation to AY amplitude
0E2A:         	snpsg_vol_tab:
0E2A: 00      		defb	0
0E2B: 08      		defb	0x8
0E2C: 0A      		defb	0xA
0E2D: 0B      		defb	0xB
0E2E: 0C      		defb	0xC
0E2F: 0C      		defb	0xC
0E30: 0E      		defb	0xE
0E31: 0E      		defb	0xE
0E32: 0E      		defb	0xE
0E33: 0E      		defb	0xE
0E34: 0E      		defb	0xE
0E35: 0F      		defb	0xF
0E36: 0F      		defb	0xF
0E37: 0F      		defb	0xF
0E38: 0F      		defb	0xF
0E39: 00      		defb	0
              		
              	
              	; ---------------------------
              	; ******** Variables ********
              	; ---------------------------
              	
              	.area	_BSS
              	
              	; Channel frequency
              	; Each channel stores is frequency between 2 bytes, there are 3 channels
11E2:         	snpsg_freq:
11E2: 00000000		defs	6
11E6: 0000    	
              		
              	; Channel attenuation
              	; Similar to frequency, but only 1 byte wide and there are 4 channels
11E8:         	snpsg_atten:
11E8: 00000000		defs	4
              		
              	; Noise control
11EC:         	snpsg_n_ctrl:
11EC: 00      		defs	1
              		
              	; Last frequency accessed
11ED:         	snpsg_lastf:
11ED: 0000    		defs	2
              	
              	; ---------------------------
              	; ******** Core Init ********
              	; ---------------------------
              	
              	.area	_TEXT
              	
              	; Start of SG-1000 core
0AD1:         	core_start:
              	
              		; Reset PSG
0AD1: CD120A  		call	snpsg_reset
              	
              		; Try to find rom resource
0AD4: 113A0E  		ld	de,str_rom
0AD7: CDE304  		call	res_locate
0ADA: B7      		or	a
0ADB: C2D403  		jp	nz,res_missing
              		
              		; Open the resource
0ADE: CDF103  		call	res_open
              		
              		; Load resources into bankmap
0AE1: 21EF11  		ld	hl,bm_rom
0AE4: 010001  		ld	bc,256
0AE7: CD4B03  		call	res_load
              		
              		; Program the I/O map
0AEA: 113E0E  		ld	de,str_prgm
0AED: CDB909  		call	cpm_print
              		
              		; Do input map
0AF0: CD9102  		call	zmm_set_virt
0AF3: CDA702  		call	zmm_prgm_in
0AF6: 217A0E  		ld	hl,io_map_input
0AF9: 110080  		ld	de,zmm_map
0AFC: 010001  		ld	bc,256
0AFF: EDB0    		ldir
              		
              		; Do output map
0B01: CDB202  		call	zmm_prgm_out
0B04: 217A0F  		ld	hl,io_map_output
0B07: 110080  		ld	de,zmm_map
0B0A: 010001  		ld	bc,256
0B0D: EDB0    		ldir
              		
              		; Allocate free ram
0B0F: 11570E  		ld	de,str_ram_alloc
0B12: CDB909  		call	cpm_print
              		
              		; Lower RAM
0B15: 1601    		ld	d,1
0B17: CDB501  		call	mem_alloc
0B1A: CDF502  		call	zmm_bnk2_set
              		
              		; Upper RAM
0B1D: 1601    		ld	d,1
0B1F: CDB501  		call	mem_alloc
0B22: CDFB02  		call	zmm_bnk3_set
              		
              		; Set up interrupt modes
0B25: CDBD02  		call	zmm_irq_inter
0B28: CDDE02  		call	zmm_irq_off
0B2B: CD6507  		call	irq_vdp_on
0B2E: CD7B07  		call	irq_keyb_on
              		
              		; Mount ROM
0B31: 3AEF11  		ld	a,(bm_rom)
0B34: CDE902  		call	zmm_bnk0_set
0B37: CD0103  		call	zmm_bnk0_wp
0B3A: 3AF011  		ld	a,(bm_rom+1)
0B3D: CDEF02  		call	zmm_bnk1_set
0B40: CD1103  		call	zmm_bnk1_wp
              		
              		; Reset joystick state
0B43: AF      		xor	a
0B44: 32F211  		ld	(sg_ctrl_sel),a
0B47: 3D      		dec	a
0B48: 32F311  		ld	(sg_ctrl_1),a
0B4B: 32F411  		ld	(sg_ctrl_2),a
              		
              		; Bind debugger
              	;	call	debug_bind
              		
              		; Start up VM
0B4E: 11680E  		ld	de,str_vm_start
0B51: CDB909  		call	cpm_print
              	
0B54: CD9102  		call	zmm_set_virt
0B57: 210000  		ld	hl,0x0000
0B5A: C35402  		jp	zmm_vm_start
              	
              	
              	; Remaps address space so all reads of the VDP address register results in a trap
              	;
              	; Returns nothing
              	; Uses: AF
0B5D:         	sg_vdpr_trap:
0B5D: CDA702  		call	zmm_prgm_in
0B60: 3E37    		ld	a,zmm_trap
              		; ld	(zmm_map+0x81),a
              		; ld	(zmm_map+0x83),a
              		; ld	(zmm_map+0x85),a
              		; ld	(zmm_map+0x87),a
              		; ld	(zmm_map+0x89),a
              		; ld	(zmm_map+0x8B),a
              		; ld	(zmm_map+0x8D),a
              		; ld	(zmm_map+0x8F),a
              		; ld	(zmm_map+0x91),a
              		; ld	(zmm_map+0x93),a
              		; ld	(zmm_map+0x95),a
              		; ld	(zmm_map+0x97),a
              		; ld	(zmm_map+0x99),a
              		; ld	(zmm_map+0x9B),a
              		; ld	(zmm_map+0x9D),a
              		; ld	(zmm_map+0x9F),a
              		; ld	(zmm_map+0xA1),a
              		; ld	(zmm_map+0xA3),a
              		; ld	(zmm_map+0xA5),a
              		; ld	(zmm_map+0xA7),a
              		; ld	(zmm_map+0xA9),a
              		; ld	(zmm_map+0xAB),a
              		; ld	(zmm_map+0xAD),a
              		; ld	(zmm_map+0xAF),a
              		; ld	(zmm_map+0xB1),a
              		; ld	(zmm_map+0xB3),a
              		; ld	(zmm_map+0xB5),a
              		; ld	(zmm_map+0xB7),a
              		; ld	(zmm_map+0xB9),a
              		; ld	(zmm_map+0xBB),a
              		; ld	(zmm_map+0xBD),a
0B62: 32BF80  		ld	(zmm_map+0xBF),a
0B65: C9      		ret
              		
              	; Untraps all VDP register read operations
              	;
              	; Returns nothing
              	; Uses: AF
0B66:         	sg_vdpr_untrap:
0B66: CDA702  		call	zmm_prgm_in
0B69: 3EA1    		ld	a,nabu_vdp_addr
              		; ld	(zmm_map+0x81),a
              		; ld	(zmm_map+0x83),a
              		; ld	(zmm_map+0x85),a
              		; ld	(zmm_map+0x87),a
              		; ld	(zmm_map+0x89),a
              		; ld	(zmm_map+0x8B),a
              		; ld	(zmm_map+0x8D),a
              		; ld	(zmm_map+0x8F),a
              		; ld	(zmm_map+0x91),a
              		; ld	(zmm_map+0x93),a
              		; ld	(zmm_map+0x95),a
              		; ld	(zmm_map+0x97),a
              		; ld	(zmm_map+0x99),a
              		; ld	(zmm_map+0x9B),a
              		; ld	(zmm_map+0x9D),a
              		; ld	(zmm_map+0x9F),a
              		; ld	(zmm_map+0xA1),a
              		; ld	(zmm_map+0xA3),a
              		; ld	(zmm_map+0xA5),a
              		; ld	(zmm_map+0xA7),a
              		; ld	(zmm_map+0xA9),a
              		; ld	(zmm_map+0xAB),a
              		; ld	(zmm_map+0xAD),a
              		; ld	(zmm_map+0xAF),a
              		; ld	(zmm_map+0xB1),a
              		; ld	(zmm_map+0xB3),a
              		; ld	(zmm_map+0xB5),a
              		; ld	(zmm_map+0xB7),a
              		; ld	(zmm_map+0xB9),a
              		; ld	(zmm_map+0xBB),a
              		; ld	(zmm_map+0xBD),a
0B6B: 32BF80  		ld	(zmm_map+0xBF),a
0B6E: C9      		ret
              		
              		; Exit out of the emulator
0B6F:         	sg_exit:
0B6F: CD9C02  		call	zmm_set_real
0B72: CD120A  		call	snpsg_reset
              		
              		; Bodge over the serial # in VRAM
0B75: 21FE57  		ld	hl,0x17FE + 0x4000
0B78: 7D      		ld	a,l
0B79: D3A1    		out	(nabu_vdp_addr),a
0B7B: 7C      		ld	a,h
0B7C: D3A1    		out	(nabu_vdp_addr),a
0B7E: AF      		xor	a
0B7F: D3A0    		out	(nabu_vdp_data),a
0B81: E3      		ex	(sp),hl
0B82: E3      		ex	(sp),hl
0B83: E3      		ex	(sp),hl
0B84: E3      		ex	(sp),hl
0B85: D3A0    		out	(nabu_vdp_data),a
              		
0B87: C3F309  		jp	cpm_exit
              		
              	; -----------------------------------
              	; ******** Interrupt Handler ********
              	; -----------------------------------
              		
              	.area	_TEXT
              		
              		
              	; Handle a "joystick" event
0B8A:         	sg_joystick:
              		
              		; Get the latest scancode from the keyboard
0B8A: DB90    		in	a,(nabu_key_data)
0B8C: 32F111  		ld	(sg_last_stroke),a
              		
              		; Is it an 'ESC'?
0B8F: FE1B    		cp	0x1B
0B91: CA6F0B  		jp	z,sg_exit
              		
              		; Is it 'PAUSE"?
0B94: FEE9    		cp	0xE9
0B96: CA1902  		jp	z,zmm_nmi
              		
              		; Check for joystick 1
0B99: FE80    		cp	0x80
0B9B: CAB00B  		jp	z,20$
              		
              		; Check for joystick 2
0B9E: FE81    		cp	0x81
0BA0: CAB50B  		jp	z,21$
              		
              		; Check for momentary keys
0BA3: FEE0    		cp	0xE0
0BA5: D2BB0B  		jp	nc,30$
              		
              		; Joystick data byte?
0BA8: E6E0    		and	0b11100000
0BAA: FEA0    		cp	0b10100000
0BAC: CABC0B  		jp	z,40$
              		
              		; Nothing useful
0BAF: C9      		ret
              		
              		; Joystick 1 detected
0BB0: AF      	20$:	xor	a
0BB1: 32F211  		ld	(sg_ctrl_sel),a
0BB4: C9      		ret
              		
              		; Joystick 2 detected
0BB5: 3E01    	21$:	ld	a,1
0BB7: 32F211  		ld	(sg_ctrl_sel),a
0BBA: C9      		ret
              		
              		; Handle a momentary key
0BBB: C9      	30$:	ret
              	
              		; Handle a joystick data byte
0BBC: E5      	40$:	push	hl
0BBD: 21F311  		ld	hl,sg_ctrl_1
0BC0: 3AF211  		ld	a,(sg_ctrl_sel)
0BC3: B7      		or	a
0BC4: C2F40B  		jp	nz,50$
              		
              		; Joystick 0
0BC7: 3AF111  		ld	a,(sg_last_stroke)
              		
              		; Left 0
0BCA: 0F      		rrca
0BCB: CBD6    		set	2,(hl)
0BCD: D2D20B  		jp	nc,$+5
0BD0: CB96    		res	2,(hl)
              		
              		; Down 0
0BD2: 0F      		rrca
0BD3: CBCE    		set	1,(hl)
0BD5: D2DA0B  		jp	nc,$+5
0BD8: CB8E    		res	1,(hl)
              		
              		; Right 0
0BDA: 0F      		rrca
0BDB: CBDE    		set	3,(hl)
0BDD: D2E20B  		jp	nc,$+5
0BE0: CB9E    		res	3,(hl)
              		
              		; Up 0
0BE2: 0F      		rrca
0BE3: CBC6    		set	0,(hl)
0BE5: D2EA0B  		jp	nc,$+5
0BE8: CB86    		res	0,(hl)
              		
              		; Fire 0
0BEA: 0F      		rrca
0BEB: CBEE    		set	5,(hl)
0BED: D2F20B  		jp	nc,$+5
0BF0: CBAE    		res	5,(hl)
              		
0BF2: E1      		pop	hl
0BF3: C9      		ret
              		
              		; Joystick  1
0BF4: 3AF111  	50$:	ld	a,(sg_last_stroke)
              	
0BF7: E1      		pop	hl
0BF8: C9      		ret
              		
              		
              	; Handle "real" interrupts from devices (if needed)
              	; All registers except AF must remain unchanged!
0BF9:         	irq_handle:
0BF9: CDBD07  		call	irq_status
0BFC: 0F      		rrca
0BFD: D0      		ret	nc
              		
              		; Interrupt detected, VDP or keyboard?
0BFE: 0F      		rrca
0BFF: DA050C  		jp	c,0$
              	
              		; Ok, we hit a keyboard interrupt
0C02: C38A0B  		jp	sg_joystick
              		
              		; Ok, we hit a VDP interrupt
0C05: CD7007  	0$:	call	irq_vdp_off
0C08: CDD302  		call	zmm_irq_on
0C0B: C35D0B  		jp	sg_vdpr_trap
              		
              		
              	; -----------------------------
              	; ******** I/O Handler ********
              	; -----------------------------
              		
              	.area	_TEXT
              	
              	; Handle an IN instruction
              	; Inputted value should be returned in register A
              	; All registers except AF must remain unchanged!
0C0E:         	in_handle:
0C0E: DB33    		in	a,(zmm_addr_lo)
0C10: 07      		rlca
0C11: DA1F0C  		jp	c,0$
              		
0C14: 07      		rlca
0C15: DA1C0C  		jp	c,10$
              		
              		; Device 0
0C18: 3AF111  		ld	a,(sg_last_stroke)
0C1B: C9      		ret
              		
              		; Device 1
0C1C: C33D0C  	10$:	jp	99$
              	
0C1F: 07      	0$:	rlca
0C20: DA2F0C  		jp	c,20$
              		
              		; Device 2: VDP
0C23: CD660B  		call	sg_vdpr_untrap
0C26: CDDE02  		call	zmm_irq_off
0C29: CD6507  		call	irq_vdp_on
0C2C: DBA1    		in	a,(nabu_vdp_addr)
0C2E: C9      		ret
              		
              		; Device 3: Joystick
0C2F: DB33    	20$	in	a,(zmm_addr_lo)
0C31: 0F      		rrca
0C32: DA390C  		jp	c,25$
              		
              		; Read controller 1
0C35: 3AF311  		ld	a,(sg_ctrl_1)
0C38: C9      		ret
              		
              		; Read controller 2
0C39: 3AF411  	25$:	ld	a,(sg_ctrl_2)
0C3C: C9      		ret
              		
              	
              		; Unknown device
0C3D: 3EFF    	99$:	ld	a,0xFF
0C3F: C9      		ret
              	
              	; Handle an OUT instruction
              	; A = Value outputted by virtual machine
              	; All registers except AF must remain unchanged!
0C40:         	out_handle:
0C40: F5      		push	af
              	
0C41: DB33    		in	a,(zmm_addr_lo)
0C43: 07      		rlca
0C44: DA500C  		jp	c,99$
0C47: 07      		rlca
0C48: D2500C  		jp	nc,99$
              		
              		; PSG
0C4B: F1      		pop	af
0C4C: CD390A  		call	snpsg_send
0C4F: C9      		ret
              	
0C50: F1      	99$:	pop	af
0C51: C9      		ret
              		
              		
              	; -------------------------
              	; ******** Strings ********
              	; -------------------------
              	
              	.area	_DATA
              	
              	; Resource strings
0E3A:         	str_rom:
0E3A: 524F4D00		defb	'ROM',0
              		
              	; Bootup strings
0E3E:         	str_prgm:
0E3E: 50524F47		defb	'PROGRAMMING VM I/O MAP',0x0A,0x0D,'$'
0E42: 52414D4D	
0E46: 494E4720	
0E4A: 564D2049	
0E4E: 2F4F204D	
0E52: 41500A0D	
0E56: 24      	
              		
              	; Bootup strings
0E57:         	str_ram_alloc:
0E57: 414C4C4F		defb	'ALLOCATING RAM',0x0A,0x0D,'$'
0E5B: 43415449	
0E5F: 4E472052	
0E63: 414D0A0D	
0E67: 24      	
              		
              	; Bootup strings
0E68:         	str_vm_start:
0E68: 53544152		defb	'STARTING VM NOW',0x0A,0x0D,'$'
0E6C: 54494E47	
0E70: 20564D20	
0E74: 4E4F570A	
0E78: 0D24    	
              	
              	
              	; ----------------------
              	; ******** Data ********
              	; ----------------------
              		
              	.area	_DATA
              	
0037:         	TRAP	equ	zmm_trap	; Trap Vector
00A0:         	_VDD	equ	nabu_vdp_data	; VDP Data
00A1:         	_VDA	equ	nabu_vdp_addr	; VDP Address
              	
              	; Virtual machine I/O maps
              	; Input map
0E7A:         	io_map_input:
              		;	0x*0 0x*1 0x*2 0x*3 0x*4 0x*5 0x*6 0x*7 0x*8 0x*9 0x*A 0x*B 0x*C 0x*D 0x*E 0x*F 
0E7A: 37373737		defb	TRAP,TRAP,TRAP,TRAP,TRAP,TRAP,TRAP,TRAP,TRAP,TRAP,TRAP,TRAP,TRAP,TRAP,TRAP,TRAP	; 0x0*
0E7E: 37...   	
0E8A: 37373737		defb	TRAP,TRAP,TRAP,TRAP,TRAP,TRAP,TRAP,TRAP,TRAP,TRAP,TRAP,TRAP,TRAP,TRAP,TRAP,TRAP	; 0x1*
0E8E: 37...   	
0E9A: 37373737		defb	TRAP,TRAP,TRAP,TRAP,TRAP,TRAP,TRAP,TRAP,TRAP,TRAP,TRAP,TRAP,TRAP,TRAP,TRAP,TRAP	; 0x2*
0E9E: 37...   	
0EAA: 37373737		defb	TRAP,TRAP,TRAP,TRAP,TRAP,TRAP,TRAP,TRAP,TRAP,TRAP,TRAP,TRAP,TRAP,TRAP,TRAP,TRAP	; 0x3*
0EAE: 37...   	
0EBA: 37373737		defb	TRAP,TRAP,TRAP,TRAP,TRAP,TRAP,TRAP,TRAP,TRAP,TRAP,TRAP,TRAP,TRAP,TRAP,TRAP,TRAP	; 0x4*
0EBE: 37...   	
0ECA: 37373737		defb	TRAP,TRAP,TRAP,TRAP,TRAP,TRAP,TRAP,TRAP,TRAP,TRAP,TRAP,TRAP,TRAP,TRAP,TRAP,TRAP	; 0x5*
0ECE: 37...   	
0EDA: 37373737		defb	TRAP,TRAP,TRAP,TRAP,TRAP,TRAP,TRAP,TRAP,TRAP,TRAP,TRAP,TRAP,TRAP,TRAP,TRAP,TRAP	; 0x6*
0EDE: 37...   	
0EEA: 37373737		defb	TRAP,TRAP,TRAP,TRAP,TRAP,TRAP,TRAP,TRAP,TRAP,TRAP,TRAP,TRAP,TRAP,TRAP,TRAP,TRAP	; 0x7*
0EEE: 37...   	
0EFA: A0A1A0A1		defb	_VDD,_VDA,_VDD,_VDA,_VDD,_VDA,_VDD,_VDA,_VDD,_VDA,_VDD,_VDA,_VDD,_VDA,_VDD,_VDA	; 0x8*
0EFE: A0A1A0A1	
0F02: A0A1A0A1	
0F06: A0A1A0A1	
0F0A: A0A1A0A1		defb	_VDD,_VDA,_VDD,_VDA,_VDD,_VDA,_VDD,_VDA,_VDD,_VDA,_VDD,_VDA,_VDD,_VDA,_VDD,_VDA	; 0x9*
0F0E: A0A1A0A1	
0F12: A0A1A0A1	
0F16: A0A1A0A1	
0F1A: A0A1A0A1		defb	_VDD,_VDA,_VDD,_VDA,_VDD,_VDA,_VDD,_VDA,_VDD,_VDA,_VDD,_VDA,_VDD,_VDA,_VDD,_VDA	; 0xA*
0F1E: A0A1A0A1	
0F22: A0A1A0A1	
0F26: A0A1A0A1	
0F2A: A0A1A0A1		defb	_VDD,_VDA,_VDD,_VDA,_VDD,_VDA,_VDD,_VDA,_VDD,_VDA,_VDD,_VDA,_VDD,_VDA,_VDD,_VDA	; 0xB*
0F2E: A0A1A0A1	
0F32: A0A1A0A1	
0F36: A0A1A0A1	
0F3A: 37373737		defb	TRAP,TRAP,TRAP,TRAP,TRAP,TRAP,TRAP,TRAP,TRAP,TRAP,TRAP,TRAP,TRAP,TRAP,TRAP,TRAP	; 0xC*
0F3E: 37...   	
0F4A: 37373737		defb	TRAP,TRAP,TRAP,TRAP,TRAP,TRAP,TRAP,TRAP,TRAP,TRAP,TRAP,TRAP,TRAP,TRAP,TRAP,TRAP	; 0xD*
0F4E: 37...   	
0F5A: 37373737		defb	TRAP,TRAP,TRAP,TRAP,TRAP,TRAP,TRAP,TRAP,TRAP,TRAP,TRAP,TRAP,TRAP,TRAP,TRAP,TRAP	; 0xE*
0F5E: 37...   	
0F6A: 37373737		defb	TRAP,TRAP,TRAP,TRAP,TRAP,TRAP,TRAP,TRAP,TRAP,TRAP,TRAP,TRAP,TRAP,TRAP,TRAP,TRAP	; 0xF*
0F6E: 37...   	
              	
              	; Output map
0F7A:         	io_map_output:
              		;	0x*0 0x*1 0x*2 0x*3 0x*4 0x*5 0x*6 0x*7 0x*8 0x*9 0x*A 0x*B 0x*C 0x*D 0x*E 0x*F 
0F7A: 37373737		defb	TRAP,TRAP,TRAP,TRAP,TRAP,TRAP,TRAP,TRAP,TRAP,TRAP,TRAP,TRAP,TRAP,TRAP,TRAP,TRAP	; 0x0*
0F7E: 37...   	
0F8A: 37373737		defb	TRAP,TRAP,TRAP,TRAP,TRAP,TRAP,TRAP,TRAP,TRAP,TRAP,TRAP,TRAP,TRAP,TRAP,TRAP,TRAP	; 0x1*
0F8E: 37...   	
0F9A: 37373737		defb	TRAP,TRAP,TRAP,TRAP,TRAP,TRAP,TRAP,TRAP,TRAP,TRAP,TRAP,TRAP,TRAP,TRAP,TRAP,TRAP	; 0x2*
0F9E: 37...   	
0FAA: 37373737		defb	TRAP,TRAP,TRAP,TRAP,TRAP,TRAP,TRAP,TRAP,TRAP,TRAP,TRAP,TRAP,TRAP,TRAP,TRAP,TRAP	; 0x3*
0FAE: 37...   	
0FBA: 37373737		defb	TRAP,TRAP,TRAP,TRAP,TRAP,TRAP,TRAP,TRAP,TRAP,TRAP,TRAP,TRAP,TRAP,TRAP,TRAP,TRAP	; 0x4*
0FBE: 37...   	
0FCA: 37373737		defb	TRAP,TRAP,TRAP,TRAP,TRAP,TRAP,TRAP,TRAP,TRAP,TRAP,TRAP,TRAP,TRAP,TRAP,TRAP,TRAP	; 0x5*
0FCE: 37...   	
0FDA: 37373737		defb	TRAP,TRAP,TRAP,TRAP,TRAP,TRAP,TRAP,TRAP,TRAP,TRAP,TRAP,TRAP,TRAP,TRAP,TRAP,TRAP	; 0x6*
0FDE: 37...   	
0FEA: 37373737		defb	TRAP,TRAP,TRAP,TRAP,TRAP,TRAP,TRAP,TRAP,TRAP,TRAP,TRAP,TRAP,TRAP,TRAP,TRAP,TRAP	; 0x7*
0FEE: 37...   	
0FFA: A0A1A0A1		defb	_VDD,_VDA,_VDD,_VDA,_VDD,_VDA,_VDD,_VDA,_VDD,_VDA,_VDD,_VDA,_VDD,_VDA,_VDD,_VDA	; 0x8*
0FFE: A0A1A0A1	
1002: A0A1A0A1	
1006: A0A1A0A1	
100A: A0A1A0A1		defb	_VDD,_VDA,_VDD,_VDA,_VDD,_VDA,_VDD,_VDA,_VDD,_VDA,_VDD,_VDA,_VDD,_VDA,_VDD,_VDA	; 0x9*
100E: A0A1A0A1	
1012: A0A1A0A1	
1016: A0A1A0A1	
101A: A0A1A0A1		defb	_VDD,_VDA,_VDD,_VDA,_VDD,_VDA,_VDD,_VDA,_VDD,_VDA,_VDD,_VDA,_VDD,_VDA,_VDD,_VDA	; 0xA*
101E: A0A1A0A1	
1022: A0A1A0A1	
1026: A0A1A0A1	
102A: A0A1A0A1		defb	_VDD,_VDA,_VDD,_VDA,_VDD,_VDA,_VDD,_VDA,_VDD,_VDA,_VDD,_VDA,_VDD,_VDA,_VDD,_VDA	; 0xB*
102E: A0A1A0A1	
1032: A0A1A0A1	
1036: A0A1A0A1	
103A: 37373737		defb	TRAP,TRAP,TRAP,TRAP,TRAP,TRAP,TRAP,TRAP,TRAP,TRAP,TRAP,TRAP,TRAP,TRAP,TRAP,TRAP	; 0xC*
103E: 37...   	
104A: 37373737		defb	TRAP,TRAP,TRAP,TRAP,TRAP,TRAP,TRAP,TRAP,TRAP,TRAP,TRAP,TRAP,TRAP,TRAP,TRAP,TRAP	; 0xD*
104E: 37...   	
105A: 37373737		defb	TRAP,TRAP,TRAP,TRAP,TRAP,TRAP,TRAP,TRAP,TRAP,TRAP,TRAP,TRAP,TRAP,TRAP,TRAP,TRAP	; 0xE*
105E: 37...   	
106A: 37373737		defb	TRAP,TRAP,TRAP,TRAP,TRAP,TRAP,TRAP,TRAP,TRAP,TRAP,TRAP,TRAP,TRAP,TRAP,TRAP,TRAP	; 0xF*
106E: 37...   	
              	
              	; ---------------------------
              	; ******** Variables ********
              	; ---------------------------
              	
              	.area	_BSS
              	
              	; Reflected state of control register
11EF:         	bm_rom:
11EF: 0000    		defs	2
              		
              	; Last stroke from the keyboard
11F1:         	sg_last_stroke:
11F1: 00      		defs	1
              		
              	; Selected joystick for updating
              	; 0 = Joystick 1 selected
              	; 1 = Joystick 2 selected
11F2:         	sg_ctrl_sel:
11F2: 00      		defs	1
              		
              	; SG-1000 joystick states
11F3:         	sg_ctrl_1:
11F3: 00      		defs	1
11F4:         	sg_ctrl_2:
11F4: 00      		defs	1


; +++ segments +++

#CODE _TEXT    = $0100 =   256,  size = $0B52 =  2898
#CODE _DATA    = $0C52 =  3154,  size = $0428 =  1064
#DATA _BSS     = $107A =  4218,  size = $017B =   379

; +++ global symbols +++

TRAP             = $0037 =    55  _DATA   KSG1000.asm:433
_BSS             = $107A =  4218  _BSS    KRISYS.asm:28 (unused)
_BSS_end         = $11F5 =  4597  _BSS    KRISYS.asm:28
_BSS_size        = $017B =   379  _BSS    KRISYS.asm:28 (unused)
_DATA            = $0C52 =  3154  _DATA   KRISYS.asm:27 (unused)
_DATA_end        = $107A =  4218  _DATA   KRISYS.asm:27
_DATA_size       = $0428 =  1064  _DATA   KRISYS.asm:27 (unused)
_TEXT            = $0100 =   256  _TEXT   KRISYS.asm:26 (unused)
_TEXT_end        = $0C52 =  3154  _TEXT   KRISYS.asm:26
_TEXT_size       = $0B52 =  2898  _TEXT   KRISYS.asm:26 (unused)
_VDA             = $00A1 =   161  _DATA   KSG1000.asm:435
_VDD             = $00A0 =   160  _DATA   KSG1000.asm:434
alloc_bank_map   = $107C =  4220  _BSS    MEMORY.asm:307
arg_size         = $0010 =    16  _BSS    RESOURCE.asm:17
banks_free       = $107B =  4219  _BSS    MEMORY.asm:301
bdos             = $0005 =     5  _TEXT   KRISYS.asm:49
bdos_con_in      = $0001 =     1  _TEXT   KRISYS.asm:51
bdos_con_out     = $0002 =     2  _TEXT   KRISYS.asm:52
bdos_exit        = $0000 =     0  _TEXT   KRISYS.asm:50
bdos_input       = $000A =    10  _TEXT   KRISYS.asm:54
bdos_open        = $000F =    15  _TEXT   KRISYS.asm:55
bdos_print       = $0009 =     9  _TEXT   KRISYS.asm:53
bdos_read        = $0014 =    20  _TEXT   KRISYS.asm:56
bios_set_dma     = $001A =    26  _TEXT   KRISYS.asm:57
bm_rom           = $11EF =  4591  _BSS    KSG1000.asm:485
core_start       = $0AD1 =  2769  _TEXT   KSG1000.asm:18
cpm_command      = $0080 =   128  _TEXT   KRISYS.asm:59
cpm_exit         = $09F3 =  2547  _TEXT   KRISYS.asm:212
cpm_getc         = $09DF =  2527  _TEXT   KRISYS.asm:190
cpm_input        = $09CC =  2508  _TEXT   KRISYS.asm:169 (unused)
cpm_print        = $09B9 =  2489  _TEXT   KRISYS.asm:147
debug_bind       = $0962 =  2402  _TEXT   DEBUG.asm:294 (unused)
debug_continue   = $092A =  2346  _TEXT   DEBUG.asm:216
debug_f_over     = $11CB =  4555  _BSS    DEBUG.asm:428
debug_flags      = $0D02 =  3330  _DATA   DEBUG.asm:351
debug_handle     = $07E6 =  2022  _TEXT   DEBUG.asm:18
debug_init       = $0947 =  2375  _TEXT   DEBUG.asm:255
debug_over       = $090C =  2316  _TEXT   DEBUG.asm:194
debug_over_sp    = $11CC =  4556  _BSS    DEBUG.asm:432
debug_pbind      = $11C4 =  4548  _BSS    DEBUG.asm:415
debug_pc_state   = $11C9 =  4553  _BSS    DEBUG.asm:424
debug_puta       = $0987 =  2439  _TEXT   DEBUG.asm:330 (unused)
debug_query      = $08F6 =  2294  _TEXT   DEBUG.asm:166 (unused)
debug_rtohex     = $094C =  2380  _TEXT   DEBUG.asm:269
debug_state      = $11E2 =  4578  _BSS    DEBUG.asm:448
debug_temp       = $11C7 =  4551  _BSS    DEBUG.asm:420
debug_unbind     = $097A =  2426  _TEXT   DEBUG.asm:314 (unused)
debug_upper      = $091A =  2330  _TEXT   DEBUG.asm:204
in_handle        = $0C0E =  3086  _TEXT   KSG1000.asm:340
input_buff       = $0DB7 =  3511  _DATA   DEBUG.asm:404 (unused)
io_map_input     = $0E7A =  3706  _DATA   KSG1000.asm:439
io_map_output    = $0F7A =  3962  _DATA   KSG1000.asm:459
irq_handle       = $0BF9 =  3065  _TEXT   KSG1000.asm:313
irq_hcca_i_off   = $07B2 =  1970  _TEXT   IRQ.asm:125 (unused)
irq_hcca_i_on    = $07A7 =  1959  _TEXT   IRQ.asm:114 (unused)
irq_hcca_o_off   = $079C =  1948  _TEXT   IRQ.asm:103 (unused)
irq_hcca_o_on    = $0791 =  1937  _TEXT   IRQ.asm:92 (unused)
irq_init         = $074E =  1870  _TEXT   IRQ.asm:22
irq_keyb_off     = $0786 =  1926  _TEXT   IRQ.asm:81 (unused)
irq_keyb_on      = $077B =  1915  _TEXT   IRQ.asm:70
irq_mask_state   = $11C3 =  4547  _BSS    IRQ.asm:182
irq_restore      = $07D0 =  2000  _TEXT   IRQ.asm:157
irq_status       = $07BD =  1981  _TEXT   IRQ.asm:136
irq_vdp_off      = $0770 =  1904  _TEXT   IRQ.asm:59
irq_vdp_on       = $0765 =  1893  _TEXT   IRQ.asm:48
kri_stack        = $7000 = 28672  _TEXT   KRISYS.asm:93
kri_start        = $0994 =  2452  _TEXT   KRISYS.asm:115
mem_alloc        = $01B5 =   437  _TEXT   MEMORY.asm:195
mem_empty        = $01F3 =   499  _TEXT   MEMORY.asm:269
mem_free         = $01D6 =   470  _TEXT   MEMORY.asm:227
mem_free_all     = $01E8 =   488  _TEXT   MEMORY.asm:253 (unused)
mem_fvbyte       = $0165 =   357  _TEXT   MEMORY.asm:101
mem_getbank      = $0190 =   400  _TEXT   MEMORY.asm:155
mem_map_init     = $0103 =   259  _TEXT   MEMORY.asm:30
mem_svbyte       = $0178 =   376  _TEXT   MEMORY.asm:128
mem_work         = $107A =  4218  _BSS    MEMORY.asm:297
nabu_ay_data     = $0040 =    64  _TEXT   KRISYS.asm:85
nabu_ay_latch    = $0041 =    65  _TEXT   KRISYS.asm:86
nabu_key_data    = $0090 =   144  _TEXT   KRISYS.asm:87
nabu_key_stat    = $0091 =   145  _TEXT   KRISYS.asm:88 (unused)
nabu_nctl        = $0000 =     0  _TEXT   KRISYS.asm:84 (unused)
nabu_vdp_addr    = $00A1 =   161  _TEXT   KRISYS.asm:90
nabu_vdp_data    = $00A0 =   160  _TEXT   KRISYS.asm:89
nmi_address      = $0066 =   102  _TEXT   KRISYS.asm:80
nmi_vector       = $0067 =   103  _TEXT   KRISYS.asm:81
out_handle       = $0C40 =  3136  _TEXT   KSG1000.asm:386
res_argument     = $1103 =  4355  _BSS    RESOURCE.asm:480
res_bankmap      = $1199 =  4505  _BSS    RESOURCE.asm:500
res_buffer       = $1116 =  4374  _BSS    RESOURCE.asm:488
res_current      = $1114 =  4372  _BSS    RESOURCE.asm:484
res_do_read      = $1198 =  4504  _BSS    RESOURCE.asm:496
res_fcb          = $119D =  4509  _BSS    RESOURCE.asm:508
res_fcb_cr       = $11BD =  4541  _BSS    RESOURCE.asm:518 (unused)
res_fcb_data     = $11AD =  4525  _BSS    RESOURCE.asm:517 (unused)
res_fcb_drive    = $119D =  4509  _BSS    RESOURCE.asm:510
res_fcb_ex       = $11A9 =  4521  _BSS    RESOURCE.asm:513 (unused)
res_fcb_name     = $119E =  4510  _BSS    RESOURCE.asm:511
res_fcb_r0       = $11BE =  4542  _BSS    RESOURCE.asm:519 (unused)
res_fcb_r1       = $11BF =  4543  _BSS    RESOURCE.asm:520 (unused)
res_fcb_r2       = $11C0 =  4544  _BSS    RESOURCE.asm:521 (unused)
res_fcb_rc       = $11AC =  4524  _BSS    RESOURCE.asm:516 (unused)
res_fcb_s1       = $11AA =  4522  _BSS    RESOURCE.asm:514 (unused)
res_fcb_s2       = $11AB =  4523  _BSS    RESOURCE.asm:515 (unused)
res_fcb_type     = $11A6 =  4518  _BSS    RESOURCE.asm:512
res_init         = $0341 =   833  _TEXT   RESOURCE.asm:29
res_load         = $034B =   843  _TEXT   RESOURCE.asm:47
res_locate       = $04E3 =  1251  _TEXT   RESOURCE.asm:360
res_missing      = $03D4 =   980  _TEXT   RESOURCE.asm:153
res_open         = $03F1 =  1009  _TEXT   RESOURCE.asm:179
res_pointer      = $119B =  4507  _BSS    RESOURCE.asm:504
res_printzt      = $04D4 =  1236  _TEXT   RESOURCE.asm:340
res_sectors      = $1196 =  4502  _BSS    RESOURCE.asm:492
sg_ctrl_1        = $11F3 =  4595  _BSS    KSG1000.asm:499
sg_ctrl_2        = $11F4 =  4596  _BSS    KSG1000.asm:501
sg_ctrl_sel      = $11F2 =  4594  _BSS    KSG1000.asm:495
sg_exit          = $0B6F =  2927  _TEXT   KSG1000.asm:186
sg_joystick      = $0B8A =  2954  _TEXT   KSG1000.asm:214
sg_last_stroke   = $11F1 =  4593  _BSS    KSG1000.asm:489
sg_vdpr_trap     = $0B5D =  2909  _TEXT   KSG1000.asm:107
sg_vdpr_untrap   = $0B66 =  2918  _TEXT   KSG1000.asm:148
snpsg_atten      = $11E8 =  4584  _BSS    SN76489.asm:217
snpsg_freq       = $11E2 =  4578  _BSS    SN76489.asm:212
snpsg_lastf      = $11ED =  4589  _BSS    SN76489.asm:225
snpsg_n_ctrl     = $11EC =  4588  _BSS    SN76489.asm:221
snpsg_reset      = $0A12 =  2578  _TEXT   SN76489.asm:25
snpsg_send       = $0A39 =  2617  _TEXT   SN76489.asm:57
snpsg_vol_tab    = $0E2A =  3626  _DATA   SN76489.asm:185
stack_size       = $0020 =    32          KRISYS.asm:31
str_arg_empty    = $0CB5 =  3253  _DATA   RESOURCE.asm:464
str_arg_fail     = $0CCC =  3276  _DATA   RESOURCE.asm:467
str_crlf         = $0E27 =  3623  _DATA   KRISYS.asm:256
str_debug        = $0CF5 =  3317  _DATA   DEBUG.asm:345
str_debug_val    = $0CFD =  3325  _DATA   DEBUG.asm:347
str_load_a       = $0CA5 =  3237  _DATA   RESOURCE.asm:457
str_load_b       = $0CAE =  3246  _DATA   RESOURCE.asm:460
str_mem_empty    = $0C7D =  3197  _DATA   MEMORY.asm:287
str_mem_init     = $0C52 =  3154  _DATA   MEMORY.asm:281
str_mem_init_cnt = $0C77 =  3191  _DATA   MEMORY.asm:284
str_missing      = $0CE2 =  3298  _DATA   RESOURCE.asm:470
str_prgm         = $0E3E =  3646  _DATA   KSG1000.asm:415
str_prompt       = $0DB3 =  3507  _DATA   DEBUG.asm:400 (unused)
str_ram_alloc    = $0E57 =  3671  _DATA   KSG1000.asm:419
str_rdump        = $0D0A =  3338  _DATA   DEBUG.asm:355
str_rdump_aaf    = $0D7B =  3451  _DATA   DEBUG.asm:384
str_rdump_abc    = $0D84 =  3460  _DATA   DEBUG.asm:386
str_rdump_ade    = $0D8D =  3469  _DATA   DEBUG.asm:388
str_rdump_af     = $0D53 =  3411  _DATA   DEBUG.asm:374
str_rdump_ahl    = $0D96 =  3478  _DATA   DEBUG.asm:390
str_rdump_bc     = $0D5C =  3420  _DATA   DEBUG.asm:376
str_rdump_de     = $0D65 =  3429  _DATA   DEBUG.asm:378
str_rdump_ei     = $0D42 =  3394  _DATA   DEBUG.asm:368
str_rdump_flag   = $0D35 =  3381  _DATA   DEBUG.asm:366
str_rdump_hl     = $0D6E =  3438  _DATA   DEBUG.asm:380
str_rdump_io     = $0D49 =  3401  _DATA   DEBUG.asm:370
str_rdump_isr    = $0D24 =  3364  _DATA   DEBUG.asm:362
str_rdump_ix     = $0DA3 =  3491  _DATA   DEBUG.asm:394
str_rdump_iy     = $0DAC =  3500  _DATA   DEBUG.asm:396
str_rdump_pc     = $0D10 =  3344  _DATA   DEBUG.asm:358
str_rdump_sp     = $0D19 =  3353  _DATA   DEBUG.asm:360
str_rom          = $0E3A =  3642  _DATA   KSG1000.asm:411
str_splash       = $0DE1 =  3553  _DATA   KRISYS.asm:251
str_vm_start     = $0E68 =  3688  _DATA   KSG1000.asm:423
str_zmm_init     = $0C93 =  3219  _DATA   ZMM.asm:358
tohex            = $09FB =  2555  _TEXT   KRISYS.asm:226
trap_a_value     = $6FFF = 28671  _TEXT   KRISYS.asm:94
trap_continue    = $0735 =  1845  _TEXT   TRAP.asm:476
trap_entry       = $054C =  1356  _TEXT   TRAP.asm:19
trap_f_value     = $6FFE = 28670  _TEXT   KRISYS.asm:95
trap_init        = $0742 =  1858  _TEXT   TRAP.asm:508
trap_io          = $055D =  1373  _TEXT   TRAP.asm:39 (unused)
trap_io_ex_out   = $05EF =  1519  _TEXT   TRAP.asm:166
trap_io_ext      = $0579 =  1401  _TEXT   TRAP.asm:59
trap_io_ind      = $0686 =  1670  _TEXT   TRAP.asm:305
trap_io_inx      = $0649 =  1609  _TEXT   TRAP.asm:246
trap_io_outd     = $06FC =  1788  _TEXT   TRAP.asm:421
trap_io_outx     = $06BF =  1727  _TEXT   TRAP.asm:360
trap_res_flag    = $0736 =  1846  _TEXT   TRAP.asm:485
trap_restore     = $0736 =  1846  _TEXT   TRAP.asm:482
trap_sp_value    = $11C1 =  4545  _BSS    TRAP.asm:526
zmm_addr_hi      = $0032 =    50  _TEXT   KRISYS.asm:68 (unused)
zmm_addr_lo      = $0033 =    51  _TEXT   KRISYS.asm:69
zmm_bnk0         = $0030 =    48  _TEXT   KRISYS.asm:62
zmm_bnk0_set     = $02E9 =   745  _TEXT   ZMM.asm:243
zmm_bnk0_state   = $10FF =  4351  _BSS    ZMM.asm:376
zmm_bnk0_we      = $0309 =   777  _TEXT   ZMM.asm:292 (unused)
zmm_bnk0_wp      = $0301 =   769  _TEXT   ZMM.asm:283
zmm_bnk1         = $0031 =    49  _TEXT   KRISYS.asm:63
zmm_bnk1_set     = $02EF =   751  _TEXT   ZMM.asm:253
zmm_bnk1_state   = $1100 =  4352  _BSS    ZMM.asm:380
zmm_bnk1_we      = $0319 =   793  _TEXT   ZMM.asm:310 (unused)
zmm_bnk1_wp      = $0311 =   785  _TEXT   ZMM.asm:301
zmm_bnk2         = $0032 =    50  _TEXT   KRISYS.asm:64
zmm_bnk2_set     = $02F5 =   757  _TEXT   ZMM.asm:263
zmm_bnk2_state   = $1101 =  4353  _BSS    ZMM.asm:384
zmm_bnk2_we      = $0329 =   809  _TEXT   ZMM.asm:328 (unused)
zmm_bnk2_wp      = $0321 =   801  _TEXT   ZMM.asm:319 (unused)
zmm_bnk3         = $0033 =    51  _TEXT   KRISYS.asm:65
zmm_bnk3_set     = $02FB =   763  _TEXT   ZMM.asm:273
zmm_bnk3_state   = $1102 =  4354  _BSS    ZMM.asm:388
zmm_bnk3_we      = $0339 =   825  _TEXT   ZMM.asm:346 (unused)
zmm_bnk3_wp      = $0331 =   817  _TEXT   ZMM.asm:337 (unused)
zmm_capt_res     = $007F =   127  _TEXT   KRISYS.asm:77
zmm_capt_set     = $0070 =   112  _TEXT   KRISYS.asm:76
zmm_capture      = $7000 = 28672  _TEXT   KRISYS.asm:72
zmm_ctrl         = $0034 =    52  _TEXT   KRISYS.asm:66
zmm_ctrl_set     = $028B =   651  _TEXT   ZMM.asm:145
zmm_ctrl_state   = $10FE =  4350  _BSS    ZMM.asm:372
zmm_init         = $01FC =   508  _TEXT   ZMM.asm:22
zmm_irq_inter    = $02BD =   701  _TEXT   ZMM.asm:198
zmm_irq_normal   = $02C8 =   712  _TEXT   ZMM.asm:209 (unused)
zmm_irq_off      = $02DE =   734  _TEXT   ZMM.asm:231
zmm_irq_on       = $02D3 =   723  _TEXT   ZMM.asm:220
zmm_isr          = $0030 =    48  _TEXT   KRISYS.asm:67
zmm_map          = $8000 = 32768  _TEXT   KRISYS.asm:73
zmm_nmi          = $0219 =   537  _TEXT   ZMM.asm:43
zmm_prgm_in      = $02A7 =   679  _TEXT   ZMM.asm:176
zmm_prgm_out     = $02B2 =   690  _TEXT   ZMM.asm:187
zmm_set_real     = $029C =   668  _TEXT   ZMM.asm:165
zmm_set_virt     = $0291 =   657  _TEXT   ZMM.asm:154
zmm_top          = $C000 = 49152  _TEXT   KRISYS.asm:74
zmm_trap         = $0037 =    55  _TEXT   KRISYS.asm:70
zmm_vm_start     = $0254 =   596  _TEXT   ZMM.asm:94
zmm_work         = $10FC =  4348  _BSS    ZMM.asm:368


total time: 0.0275 sec.
no errors
